Component: ARM Compiler 5.06 update 6 (build 750) Tool: armlink [4d35ed]

==============================================================================

Section Cross References

    main.o(i.main) refers to misc.o(i.NVIC_PriorityGroupConfig) for NVIC_PriorityGroupConfig
    main.o(i.main) refers to bsp_led.o(i.LED_init) for LED_init
    main.o(i.main) refers to bsp_usart.o(i.USART1_Init) for USART1_Init
    main.o(i.main) refers to bsp_can.o(i.CAN1_init) for CAN1_init
    main.o(i.main) refers to bsp_can.o(i.CAN2_init) for CAN2_init
    main.o(i.main) refers to make_task.o(i.create_task) for create_task
    main.o(i.main) refers to tasks.o(i.vTaskStartScheduler) for vTaskStartScheduler
    system_stm32f4xx.o(i.SystemCoreClockUpdate) refers to system_stm32f4xx.o(.data) for .data
    make_task.o(i.create_task) refers to tasks.o(i.xTaskCreate) for xTaskCreate
    make_task.o(i.create_task) refers to led_blink_task.o(i.led_task) for led_task
    make_task.o(i.create_task) refers to buzzer_task.o(i.buzzer_task) for buzzer_task
    make_task.o(i.create_task) refers to chassis_task.o(i.Chassis_task) for Chassis_task
    make_task.o(i.create_task) refers to gyro_task.o(i.GYRO_task) for GYRO_task
    stm32f4xx_gpio.o(i.GPIO_DeInit) refers to stm32f4xx_rcc.o(i.RCC_AHB1PeriphResetCmd) for RCC_AHB1PeriphResetCmd
    stm32f4xx_rcc.o(i.RCC_GetClocksFreq) refers to stm32f4xx_rcc.o(.data) for .data
    stm32f4xx_syscfg.o(i.SYSCFG_DeInit) refers to stm32f4xx_rcc.o(i.RCC_APB2PeriphResetCmd) for RCC_APB2PeriphResetCmd
    stm32f4xx_usart.o(i.USART_DeInit) refers to stm32f4xx_rcc.o(i.RCC_APB1PeriphResetCmd) for RCC_APB1PeriphResetCmd
    stm32f4xx_usart.o(i.USART_DeInit) refers to stm32f4xx_rcc.o(i.RCC_APB2PeriphResetCmd) for RCC_APB2PeriphResetCmd
    stm32f4xx_usart.o(i.USART_Init) refers to stm32f4xx_rcc.o(i.RCC_GetClocksFreq) for RCC_GetClocksFreq
    stm32f4xx_tim.o(i.TIM_DeInit) refers to stm32f4xx_rcc.o(i.RCC_APB1PeriphResetCmd) for RCC_APB1PeriphResetCmd
    stm32f4xx_tim.o(i.TIM_DeInit) refers to stm32f4xx_rcc.o(i.RCC_APB2PeriphResetCmd) for RCC_APB2PeriphResetCmd
    stm32f4xx_adc.o(i.ADC_DeInit) refers to stm32f4xx_rcc.o(i.RCC_APB2PeriphResetCmd) for RCC_APB2PeriphResetCmd
    stm32f4xx_spi.o(i.SPI_I2S_DeInit) refers to stm32f4xx_rcc.o(i.RCC_APB2PeriphResetCmd) for RCC_APB2PeriphResetCmd
    stm32f4xx_spi.o(i.SPI_I2S_DeInit) refers to stm32f4xx_rcc.o(i.RCC_APB1PeriphResetCmd) for RCC_APB1PeriphResetCmd
    stm32f4xx_flash.o(i.FLASH_EraseAllBank1Sectors) refers to stm32f4xx_flash.o(i.FLASH_WaitForLastOperation) for FLASH_WaitForLastOperation
    stm32f4xx_flash.o(i.FLASH_EraseAllBank2Sectors) refers to stm32f4xx_flash.o(i.FLASH_WaitForLastOperation) for FLASH_WaitForLastOperation
    stm32f4xx_flash.o(i.FLASH_EraseAllSectors) refers to stm32f4xx_flash.o(i.FLASH_WaitForLastOperation) for FLASH_WaitForLastOperation
    stm32f4xx_flash.o(i.FLASH_EraseSector) refers to stm32f4xx_flash.o(i.FLASH_WaitForLastOperation) for FLASH_WaitForLastOperation
    stm32f4xx_flash.o(i.FLASH_OB_Launch) refers to stm32f4xx_flash.o(i.FLASH_WaitForLastOperation) for FLASH_WaitForLastOperation
    stm32f4xx_flash.o(i.FLASH_OB_PCROP1Config) refers to stm32f4xx_flash.o(i.FLASH_WaitForLastOperation) for FLASH_WaitForLastOperation
    stm32f4xx_flash.o(i.FLASH_OB_PCROPConfig) refers to stm32f4xx_flash.o(i.FLASH_WaitForLastOperation) for FLASH_WaitForLastOperation
    stm32f4xx_flash.o(i.FLASH_OB_RDPConfig) refers to stm32f4xx_flash.o(i.FLASH_WaitForLastOperation) for FLASH_WaitForLastOperation
    stm32f4xx_flash.o(i.FLASH_OB_UserConfig) refers to stm32f4xx_flash.o(i.FLASH_WaitForLastOperation) for FLASH_WaitForLastOperation
    stm32f4xx_flash.o(i.FLASH_OB_WRP1Config) refers to stm32f4xx_flash.o(i.FLASH_WaitForLastOperation) for FLASH_WaitForLastOperation
    stm32f4xx_flash.o(i.FLASH_OB_WRPConfig) refers to stm32f4xx_flash.o(i.FLASH_WaitForLastOperation) for FLASH_WaitForLastOperation
    stm32f4xx_flash.o(i.FLASH_ProgramByte) refers to stm32f4xx_flash.o(i.FLASH_WaitForLastOperation) for FLASH_WaitForLastOperation
    stm32f4xx_flash.o(i.FLASH_ProgramDoubleWord) refers to stm32f4xx_flash.o(i.FLASH_WaitForLastOperation) for FLASH_WaitForLastOperation
    stm32f4xx_flash.o(i.FLASH_ProgramHalfWord) refers to stm32f4xx_flash.o(i.FLASH_WaitForLastOperation) for FLASH_WaitForLastOperation
    stm32f4xx_flash.o(i.FLASH_ProgramWord) refers to stm32f4xx_flash.o(i.FLASH_WaitForLastOperation) for FLASH_WaitForLastOperation
    stm32f4xx_can.o(i.CAN_DeInit) refers to stm32f4xx_rcc.o(i.RCC_APB1PeriphResetCmd) for RCC_APB1PeriphResetCmd
    stm32f4xx_i2c.o(i.I2C_DeInit) refers to stm32f4xx_rcc.o(i.RCC_APB1PeriphResetCmd) for RCC_APB1PeriphResetCmd
    stm32f4xx_i2c.o(i.I2C_Init) refers to stm32f4xx_rcc.o(i.RCC_GetClocksFreq) for RCC_GetClocksFreq
    startup_stm32f40_41xxx.o(RESET) refers to startup_stm32f40_41xxx.o(STACK) for __initial_sp
    startup_stm32f40_41xxx.o(RESET) refers to startup_stm32f40_41xxx.o(.text) for Reset_Handler
    startup_stm32f40_41xxx.o(RESET) refers to stm32f4xx_it.o(i.NMI_Handler) for NMI_Handler
    startup_stm32f40_41xxx.o(RESET) refers to stm32f4xx_it.o(i.HardFault_Handler) for HardFault_Handler
    startup_stm32f40_41xxx.o(RESET) refers to stm32f4xx_it.o(i.MemManage_Handler) for MemManage_Handler
    startup_stm32f40_41xxx.o(RESET) refers to stm32f4xx_it.o(i.BusFault_Handler) for BusFault_Handler
    startup_stm32f40_41xxx.o(RESET) refers to stm32f4xx_it.o(i.UsageFault_Handler) for UsageFault_Handler
    startup_stm32f40_41xxx.o(RESET) refers to port.o(.emb_text) for SVC_Handler
    startup_stm32f40_41xxx.o(RESET) refers to stm32f4xx_it.o(i.DebugMon_Handler) for DebugMon_Handler
    startup_stm32f40_41xxx.o(RESET) refers to port.o(i.SysTick_Handler) for SysTick_Handler
    startup_stm32f40_41xxx.o(RESET) refers to remote_task.o(i.CAN1_RX0_IRQHandler) for CAN1_RX0_IRQHandler
    startup_stm32f40_41xxx.o(RESET) refers to bsp_tim.o(i.TIM3_IRQHandler) for TIM3_IRQHandler
    startup_stm32f40_41xxx.o(RESET) refers to bsp_tim.o(i.TIM5_IRQHandler) for TIM5_IRQHandler
    startup_stm32f40_41xxx.o(RESET) refers to bsp_motor.o(i.CAN2_RX0_IRQHandler) for CAN2_RX0_IRQHandler
    startup_stm32f40_41xxx.o(.text) refers to system_stm32f4xx.o(i.SystemInit) for SystemInit
    startup_stm32f40_41xxx.o(.text) refers to entry.o(.ARM.Collect$$$$00000000) for __main
    led_blink_task.o(i.VLEDBlink_ofdetection_update) refers to led_blink_task.o(.data) for .data
    led_blink_task.o(i.led_task) refers to stm32f4xx_gpio.o(i.GPIO_SetBits) for GPIO_SetBits
    led_blink_task.o(i.led_task) refers to tasks.o(i.vTaskDelay) for vTaskDelay
    led_blink_task.o(i.led_task) refers to stm32f4xx_gpio.o(i.GPIO_ResetBits) for GPIO_ResetBits
    led_blink_task.o(i.led_task) refers to led_blink_task.o(.data) for .data
    led_blink_task.o(i.led_task) refers to led_blink_task.o(.bss) for .bss
    buzzer_task.o(i.buzzer_task) refers to stm32f4xx_tim.o(i.TIM_SetCompare3) for TIM_SetCompare3
    buzzer_task.o(i.buzzer_task) refers to tasks.o(i.vTaskDelay) for vTaskDelay
    buzzer_task.o(i.buzzer_task) refers to led_blink_task.o(.data) for LED_Blink_outime_num
    chassis_task.o(i.Chassis_task) refers to remote_task.o(i.get_speed_set_p) for get_speed_set_p
    chassis_task.o(i.Chassis_task) refers to remote_task.o(i.get_angle_p) for get_angle_p
    chassis_task.o(i.Chassis_task) refers to pid.o(i.PID_Init) for PID_Init
    chassis_task.o(i.Chassis_task) refers to dflti.o(.text) for __aeabi_i2d
    chassis_task.o(i.Chassis_task) refers to dmul.o(.text) for __aeabi_dmul
    chassis_task.o(i.Chassis_task) refers to d2f.o(.text) for __aeabi_d2f
    chassis_task.o(i.Chassis_task) refers to z_math.o(i.FZ_math_StepToSlope_cale) for FZ_math_StepToSlope_cale
    chassis_task.o(i.Chassis_task) refers to chassis_behave.o(i.chassis_revolve_solve) for chassis_revolve_solve
    chassis_task.o(i.Chassis_task) refers to chassis_behave.o(i.chassis_zero_solve) for chassis_zero_solve
    chassis_task.o(i.Chassis_task) refers to chassis_behave.o(i.chassis_follow_chassis_solve) for chassis_follow_chassis_solve
    chassis_task.o(i.Chassis_task) refers to chassis_behave.o(i.chassis_follow_gym_solve) for chassis_follow_gym_solve
    chassis_task.o(i.Chassis_task) refers to z_math.o(i.FZ_math_absolute) for FZ_math_absolute
    chassis_task.o(i.Chassis_task) refers to pid.o(i.PID_cale) for PID_cale
    chassis_task.o(i.Chassis_task) refers to rm_motor.o(i.RM_motor_send) for RM_motor_send
    chassis_task.o(i.Chassis_task) refers to tasks.o(i.vTaskDelay) for vTaskDelay
    chassis_task.o(i.Chassis_task) refers to chassis_task.o(.bss) for .bss
    chassis_task.o(i.Chassis_task) refers to gyro_task.o(.bss) for INS_angle
    remote_task.o(i.CAN1_RX0_IRQHandler) refers to stm32f4xx_can.o(i.CAN_GetITStatus) for CAN_GetITStatus
    remote_task.o(i.CAN1_RX0_IRQHandler) refers to stm32f4xx_can.o(i.CAN_ClearITPendingBit) for CAN_ClearITPendingBit
    remote_task.o(i.CAN1_RX0_IRQHandler) refers to stm32f4xx_can.o(i.CAN_Receive) for CAN_Receive
    remote_task.o(i.CAN1_RX0_IRQHandler) refers to led_blink_task.o(i.VLEDBlink_ofdetection_update) for VLEDBlink_ofdetection_update
    remote_task.o(i.CAN1_RX0_IRQHandler) refers to led_blink_task.o(.data) for LED_state_dis
    remote_task.o(i.CAN1_RX0_IRQHandler) refers to remote_task.o(.data) for .data
    remote_task.o(i.get_angle_p) refers to remote_task.o(.data) for .data
    remote_task.o(i.get_speed_set_p) refers to remote_task.o(.data) for .data
    chassis_behave.o(i.chassis_follow_chassis_solve) refers to pid.o(i.PID_cale) for PID_cale
    chassis_behave.o(i.chassis_follow_chassis_solve_D) refers to f2d.o(.text) for __aeabi_f2d
    chassis_behave.o(i.chassis_follow_chassis_solve_D) refers to atan.o(i.__hardfp_atan) for __hardfp_atan
    chassis_behave.o(i.chassis_follow_chassis_solve_D) refers to d2f.o(.text) for __aeabi_d2f
    chassis_behave.o(i.chassis_follow_gym_solve) refers to arm_sin_cos_f32.o(.text) for arm_sin_cos_f32
    chassis_behave.o(i.chassis_follow_gym_solve) refers to pid.o(i.PID_cale) for PID_cale
    chassis_behave.o(i.chassis_revolve_solve) refers to arm_sin_cos_f32.o(.text) for arm_sin_cos_f32
    gyro_task.o(i.GYRO_task) refers to bsp_gyro_accal.o(i.BMI088_init) for BMI088_init
    gyro_task.o(i.GYRO_task) refers to tasks.o(i.vTaskDelay) for vTaskDelay
    gyro_task.o(i.GYRO_task) refers to bsp_gyro_accal.o(i.BMI088_read) for BMI088_read
    gyro_task.o(i.GYRO_task) refers to gyro_task.o(i.imu_cali_slove) for imu_cali_slove
    gyro_task.o(i.GYRO_task) refers to ahrs.o(i.AHRS_init) for AHRS_init
    gyro_task.o(i.GYRO_task) refers to pid.o(i.PID_Init) for PID_Init
    gyro_task.o(i.GYRO_task) refers to ahrs.o(i.AHRS_update) for AHRS_update
    gyro_task.o(i.GYRO_task) refers to ahrs.o(i.get_angle) for get_angle
    gyro_task.o(i.GYRO_task) refers to f2d.o(.text) for __aeabi_f2d
    gyro_task.o(i.GYRO_task) refers to dadd.o(.text) for __aeabi_dadd
    gyro_task.o(i.GYRO_task) refers to d2f.o(.text) for __aeabi_d2f
    gyro_task.o(i.GYRO_task) refers to pid.o(i.PID_cale) for PID_cale
    gyro_task.o(i.GYRO_task) refers to z_math.o(i.FZ_math_limt) for FZ_math_limt
    gyro_task.o(i.GYRO_task) refers to stm32f4xx_tim.o(i.TIM_SetCompare1) for TIM_SetCompare1
    gyro_task.o(i.GYRO_task) refers to gyro_task.o(.bss) for .bss
    gyro_task.o(i.GYRO_task) refers to gyro_task.o(.constdata) for .constdata
    gyro_task.o(i.imu_cali_slove) refers to gyro_task.o(.data) for .data
    gyro_task.o(i.imu_cali_slove) refers to gyro_task.o(.bss) for .bss
    bsp_led.o(i.LED_init) refers to stm32f4xx_rcc.o(i.RCC_AHB1PeriphClockCmd) for RCC_AHB1PeriphClockCmd
    bsp_led.o(i.LED_init) refers to stm32f4xx_gpio.o(i.GPIO_Init) for GPIO_Init
    bsp_led.o(i.LED_init) refers to stm32f4xx_gpio.o(i.GPIO_ResetBits) for GPIO_ResetBits
    bsp_delay.o(i.Delay_ms) refers to bsp_delay.o(.data) for .data
    bsp_usart.o(i.USART1_Init) refers to stm32f4xx_rcc.o(i.RCC_APB2PeriphClockCmd) for RCC_APB2PeriphClockCmd
    bsp_usart.o(i.USART1_Init) refers to stm32f4xx_rcc.o(i.RCC_AHB1PeriphClockCmd) for RCC_AHB1PeriphClockCmd
    bsp_usart.o(i.USART1_Init) refers to stm32f4xx_gpio.o(i.GPIO_PinAFConfig) for GPIO_PinAFConfig
    bsp_usart.o(i.USART1_Init) refers to stm32f4xx_gpio.o(i.GPIO_Init) for GPIO_Init
    bsp_usart.o(i.USART1_Init) refers to stm32f4xx_usart.o(i.USART_Init) for USART_Init
    bsp_usart.o(i.USART1_Init) refers to stm32f4xx_usart.o(i.USART_Cmd) for USART_Cmd
    bsp_usart.o(i.USART1_Init) refers to stm32f4xx_usart.o(i.USART_ITConfig) for USART_ITConfig
    bsp_usart.o(i.USART1_Init) refers to misc.o(i.NVIC_Init) for NVIC_Init
    bsp_usart.o(i.USART1_Init) refers to stm32f4xx_dma.o(i.DMA_Init) for DMA_Init
    bsp_usart.o(i.USART1_Init) refers to stm32f4xx_usart.o(i.USART_DMACmd) for USART_DMACmd
    bsp_usart.o(i.USART1_Init) refers to bsp_usart.o(.data) for .data
    bsp_usart.o(i.USART1_Init) refers to bsp_usart.o(.bss) for .bss
    bsp_usart.o(i.usart1_DMA_send_date) refers to stm32f4xx_dma.o(i.DMA_Cmd) for DMA_Cmd
    bsp_usart.o(i.usart1_DMA_send_date) refers to stm32f4xx_dma.o(i.DMA_GetCmdStatus) for DMA_GetCmdStatus
    bsp_usart.o(i.usart1_DMA_send_date) refers to stm32f4xx_dma.o(i.DMA_ClearITPendingBit) for DMA_ClearITPendingBit
    bsp_usart.o(i.usart1_DMA_send_date) refers to stm32f4xx_dma.o(i.DMA_SetCurrDataCounter) for DMA_SetCurrDataCounter
    bsp_usart.o(i.usart_send_date) refers to stm32f4xx_usart.o(i.USART_GetFlagStatus) for USART_GetFlagStatus
    bsp_usart.o(i.usart_send_date) refers to stm32f4xx_usart.o(i.USART_SendData) for USART_SendData
    bsp_tim.o(i.TIM3_IRQHandler) refers to stm32f4xx_tim.o(i.TIM_GetITStatus) for TIM_GetITStatus
    bsp_tim.o(i.TIM3_IRQHandler) refers to stm32f4xx_tim.o(i.TIM_ClearITPendingBit) for TIM_ClearITPendingBit
    bsp_tim.o(i.TIM3_Init) refers to stm32f4xx_rcc.o(i.RCC_APB1PeriphClockCmd) for RCC_APB1PeriphClockCmd
    bsp_tim.o(i.TIM3_Init) refers to stm32f4xx_tim.o(i.TIM_TimeBaseInit) for TIM_TimeBaseInit
    bsp_tim.o(i.TIM3_Init) refers to stm32f4xx_tim.o(i.TIM_ITConfig) for TIM_ITConfig
    bsp_tim.o(i.TIM3_Init) refers to stm32f4xx_tim.o(i.TIM_Cmd) for TIM_Cmd
    bsp_tim.o(i.TIM3_Init) refers to misc.o(i.NVIC_Init) for NVIC_Init
    bsp_tim.o(i.TIM5_IRQHandler) refers to stm32f4xx_tim.o(i.TIM_GetITStatus) for TIM_GetITStatus
    bsp_tim.o(i.TIM5_IRQHandler) refers to stm32f4xx_tim.o(i.TIM_GetCapture1) for TIM_GetCapture1
    bsp_tim.o(i.TIM5_IRQHandler) refers to stm32f4xx_tim.o(i.TIM_OC1PolarityConfig) for TIM_OC1PolarityConfig
    bsp_tim.o(i.TIM5_IRQHandler) refers to stm32f4xx_tim.o(i.TIM_Cmd) for TIM_Cmd
    bsp_tim.o(i.TIM5_IRQHandler) refers to stm32f4xx_tim.o(i.TIM_SetCounter) for TIM_SetCounter
    bsp_tim.o(i.TIM5_IRQHandler) refers to stm32f4xx_tim.o(i.TIM_ClearITPendingBit) for TIM_ClearITPendingBit
    bsp_tim.o(i.TIM5_IRQHandler) refers to bsp_tim.o(.data) for .data
    bsp_tim.o(i.TIM5_ch1__ic_init) refers to stm32f4xx_rcc.o(i.RCC_APB1PeriphClockCmd) for RCC_APB1PeriphClockCmd
    bsp_tim.o(i.TIM5_ch1__ic_init) refers to stm32f4xx_rcc.o(i.RCC_AHB1PeriphClockCmd) for RCC_AHB1PeriphClockCmd
    bsp_tim.o(i.TIM5_ch1__ic_init) refers to stm32f4xx_gpio.o(i.GPIO_Init) for GPIO_Init
    bsp_tim.o(i.TIM5_ch1__ic_init) refers to stm32f4xx_gpio.o(i.GPIO_PinAFConfig) for GPIO_PinAFConfig
    bsp_tim.o(i.TIM5_ch1__ic_init) refers to stm32f4xx_tim.o(i.TIM_TimeBaseInit) for TIM_TimeBaseInit
    bsp_tim.o(i.TIM5_ch1__ic_init) refers to stm32f4xx_tim.o(i.TIM_ICInit) for TIM_ICInit
    bsp_tim.o(i.TIM5_ch1__ic_init) refers to stm32f4xx_tim.o(i.TIM_ITConfig) for TIM_ITConfig
    bsp_tim.o(i.TIM5_ch1__ic_init) refers to stm32f4xx_tim.o(i.TIM_Cmd) for TIM_Cmd
    bsp_tim.o(i.TIM5_ch1__ic_init) refers to misc.o(i.NVIC_Init) for NVIC_Init
    bsp_pwm.o(i.TIM10_PWM_init) refers to stm32f4xx_rcc.o(i.RCC_APB2PeriphClockCmd) for RCC_APB2PeriphClockCmd
    bsp_pwm.o(i.TIM10_PWM_init) refers to stm32f4xx_rcc.o(i.RCC_AHB1PeriphClockCmd) for RCC_AHB1PeriphClockCmd
    bsp_pwm.o(i.TIM10_PWM_init) refers to stm32f4xx_gpio.o(i.GPIO_Init) for GPIO_Init
    bsp_pwm.o(i.TIM10_PWM_init) refers to stm32f4xx_gpio.o(i.GPIO_PinAFConfig) for GPIO_PinAFConfig
    bsp_pwm.o(i.TIM10_PWM_init) refers to stm32f4xx_tim.o(i.TIM_TimeBaseInit) for TIM_TimeBaseInit
    bsp_pwm.o(i.TIM10_PWM_init) refers to stm32f4xx_tim.o(i.TIM_OC1Init) for TIM_OC1Init
    bsp_pwm.o(i.TIM10_PWM_init) refers to stm32f4xx_tim.o(i.TIM_OC1PreloadConfig) for TIM_OC1PreloadConfig
    bsp_pwm.o(i.TIM10_PWM_init) refers to stm32f4xx_tim.o(i.TIM_ARRPreloadConfig) for TIM_ARRPreloadConfig
    bsp_pwm.o(i.TIM10_PWM_init) refers to stm32f4xx_tim.o(i.TIM_Cmd) for TIM_Cmd
    bsp_pwm.o(i.TIM1_PWM_init) refers to stm32f4xx_rcc.o(i.RCC_APB2PeriphClockCmd) for RCC_APB2PeriphClockCmd
    bsp_pwm.o(i.TIM1_PWM_init) refers to stm32f4xx_rcc.o(i.RCC_AHB1PeriphClockCmd) for RCC_AHB1PeriphClockCmd
    bsp_pwm.o(i.TIM1_PWM_init) refers to stm32f4xx_gpio.o(i.GPIO_PinAFConfig) for GPIO_PinAFConfig
    bsp_pwm.o(i.TIM1_PWM_init) refers to stm32f4xx_gpio.o(i.GPIO_Init) for GPIO_Init
    bsp_pwm.o(i.TIM1_PWM_init) refers to stm32f4xx_tim.o(i.TIM_TimeBaseInit) for TIM_TimeBaseInit
    bsp_pwm.o(i.TIM1_PWM_init) refers to stm32f4xx_tim.o(i.TIM_OC1Init) for TIM_OC1Init
    bsp_pwm.o(i.TIM1_PWM_init) refers to stm32f4xx_tim.o(i.TIM_OC2Init) for TIM_OC2Init
    bsp_pwm.o(i.TIM1_PWM_init) refers to stm32f4xx_tim.o(i.TIM_OC3Init) for TIM_OC3Init
    bsp_pwm.o(i.TIM1_PWM_init) refers to stm32f4xx_tim.o(i.TIM_OC4Init) for TIM_OC4Init
    bsp_pwm.o(i.TIM1_PWM_init) refers to stm32f4xx_tim.o(i.TIM_OC1PreloadConfig) for TIM_OC1PreloadConfig
    bsp_pwm.o(i.TIM1_PWM_init) refers to stm32f4xx_tim.o(i.TIM_OC2PreloadConfig) for TIM_OC2PreloadConfig
    bsp_pwm.o(i.TIM1_PWM_init) refers to stm32f4xx_tim.o(i.TIM_OC3PreloadConfig) for TIM_OC3PreloadConfig
    bsp_pwm.o(i.TIM1_PWM_init) refers to stm32f4xx_tim.o(i.TIM_OC4PreloadConfig) for TIM_OC4PreloadConfig
    bsp_pwm.o(i.TIM1_PWM_init) refers to stm32f4xx_tim.o(i.TIM_ARRPreloadConfig) for TIM_ARRPreloadConfig
    bsp_pwm.o(i.TIM1_PWM_init) refers to stm32f4xx_tim.o(i.TIM_Cmd) for TIM_Cmd
    bsp_pwm.o(i.TIM1_PWM_init) refers to stm32f4xx_tim.o(i.TIM_CtrlPWMOutputs) for TIM_CtrlPWMOutputs
    bsp_pwm.o(i.TIM4_PWM_init) refers to stm32f4xx_rcc.o(i.RCC_APB1PeriphClockCmd) for RCC_APB1PeriphClockCmd
    bsp_pwm.o(i.TIM4_PWM_init) refers to stm32f4xx_rcc.o(i.RCC_AHB1PeriphClockCmd) for RCC_AHB1PeriphClockCmd
    bsp_pwm.o(i.TIM4_PWM_init) refers to stm32f4xx_gpio.o(i.GPIO_Init) for GPIO_Init
    bsp_pwm.o(i.TIM4_PWM_init) refers to stm32f4xx_gpio.o(i.GPIO_PinAFConfig) for GPIO_PinAFConfig
    bsp_pwm.o(i.TIM4_PWM_init) refers to stm32f4xx_tim.o(i.TIM_TimeBaseInit) for TIM_TimeBaseInit
    bsp_pwm.o(i.TIM4_PWM_init) refers to stm32f4xx_tim.o(i.TIM_OC3Init) for TIM_OC3Init
    bsp_pwm.o(i.TIM4_PWM_init) refers to stm32f4xx_tim.o(i.TIM_OC3PreloadConfig) for TIM_OC3PreloadConfig
    bsp_pwm.o(i.TIM4_PWM_init) refers to stm32f4xx_tim.o(i.TIM_ARRPreloadConfig) for TIM_ARRPreloadConfig
    bsp_pwm.o(i.TIM4_PWM_init) refers to stm32f4xx_tim.o(i.TIM_Cmd) for TIM_Cmd
    bsp_can.o(i.CAN1_init) refers to stm32f4xx_rcc.o(i.RCC_AHB1PeriphClockCmd) for RCC_AHB1PeriphClockCmd
    bsp_can.o(i.CAN1_init) refers to stm32f4xx_rcc.o(i.RCC_APB1PeriphClockCmd) for RCC_APB1PeriphClockCmd
    bsp_can.o(i.CAN1_init) refers to stm32f4xx_gpio.o(i.GPIO_PinAFConfig) for GPIO_PinAFConfig
    bsp_can.o(i.CAN1_init) refers to stm32f4xx_gpio.o(i.GPIO_Init) for GPIO_Init
    bsp_can.o(i.CAN1_init) refers to stm32f4xx_can.o(i.CAN_Init) for CAN_Init
    bsp_can.o(i.CAN1_init) refers to stm32f4xx_can.o(i.CAN_FilterInit) for CAN_FilterInit
    bsp_can.o(i.CAN1_init) refers to stm32f4xx_can.o(i.CAN_ITConfig) for CAN_ITConfig
    bsp_can.o(i.CAN1_init) refers to misc.o(i.NVIC_Init) for NVIC_Init
    bsp_can.o(i.CAN2_init) refers to stm32f4xx_rcc.o(i.RCC_AHB1PeriphClockCmd) for RCC_AHB1PeriphClockCmd
    bsp_can.o(i.CAN2_init) refers to stm32f4xx_rcc.o(i.RCC_APB1PeriphClockCmd) for RCC_APB1PeriphClockCmd
    bsp_can.o(i.CAN2_init) refers to stm32f4xx_gpio.o(i.GPIO_PinAFConfig) for GPIO_PinAFConfig
    bsp_can.o(i.CAN2_init) refers to stm32f4xx_gpio.o(i.GPIO_Init) for GPIO_Init
    bsp_can.o(i.CAN2_init) refers to stm32f4xx_can.o(i.CAN_Init) for CAN_Init
    bsp_can.o(i.CAN2_init) refers to stm32f4xx_can.o(i.CAN_FilterInit) for CAN_FilterInit
    bsp_can.o(i.CAN2_init) refers to stm32f4xx_can.o(i.CAN_ITConfig) for CAN_ITConfig
    bsp_can.o(i.CAN2_init) refers to misc.o(i.NVIC_Init) for NVIC_Init
    bsp_motor.o(i.CAN2_RX0_IRQHandler) refers to stm32f4xx_can.o(i.CAN_GetITStatus) for CAN_GetITStatus
    bsp_motor.o(i.CAN2_RX0_IRQHandler) refers to stm32f4xx_can.o(i.CAN_ClearITPendingBit) for CAN_ClearITPendingBit
    bsp_motor.o(i.CAN2_RX0_IRQHandler) refers to stm32f4xx_can.o(i.CAN_Receive) for CAN_Receive
    bsp_motor.o(i.CAN2_RX0_IRQHandler) refers to led_blink_task.o(i.VLEDBlink_ofdetection_update) for VLEDBlink_ofdetection_update
    bsp_motor.o(i.CAN2_RX0_IRQHandler) refers to rm_motor.o(i.motor_msg_decode_3508) for motor_msg_decode_3508
    bsp_motor.o(i.CAN2_RX0_IRQHandler) refers to led_blink_task.o(.data) for LED_state_dis
    bsp_motor.o(i.CAN2_RX0_IRQHandler) refers to chassis_task.o(.bss) for Main_chassis
    bsp_spi.o(i.SPI1_Init) refers to stm32f4xx_rcc.o(i.RCC_AHB1PeriphClockCmd) for RCC_AHB1PeriphClockCmd
    bsp_spi.o(i.SPI1_Init) refers to stm32f4xx_rcc.o(i.RCC_APB2PeriphClockCmd) for RCC_APB2PeriphClockCmd
    bsp_spi.o(i.SPI1_Init) refers to stm32f4xx_gpio.o(i.GPIO_Init) for GPIO_Init
    bsp_spi.o(i.SPI1_Init) refers to stm32f4xx_gpio.o(i.GPIO_PinAFConfig) for GPIO_PinAFConfig
    bsp_spi.o(i.SPI1_Init) refers to stm32f4xx_spi.o(i.SPI_Init) for SPI_Init
    bsp_spi.o(i.SPI1_Init) refers to stm32f4xx_spi.o(i.SPI_CalculateCRC) for SPI_CalculateCRC
    bsp_spi.o(i.SPI1_Init) refers to stm32f4xx_spi.o(i.SPI_Cmd) for SPI_Cmd
    bsp_spi.o(i.SPI_ReadWriteByte) refers to stm32f4xx_spi.o(i.SPI_I2S_GetFlagStatus) for SPI_I2S_GetFlagStatus
    bsp_spi.o(i.SPI_ReadWriteByte) refers to stm32f4xx_spi.o(i.SPI_I2S_SendData) for SPI_I2S_SendData
    bsp_spi.o(i.SPI_ReadWriteByte) refers to stm32f4xx_spi.o(i.SPI_I2S_ReceiveData) for SPI_I2S_ReceiveData
    bsp_spi.o(i.SPI_WriteData) refers to stm32f4xx_spi.o(i.SPI_I2S_GetFlagStatus) for SPI_I2S_GetFlagStatus
    bsp_spi.o(i.SPI_WriteData) refers to stm32f4xx_spi.o(i.SPI_I2S_SendData) for SPI_I2S_SendData
    bsp_spi.o(i.SPI_WriteData) refers to stm32f4xx_spi.o(i.SPI_I2S_ReceiveData) for SPI_I2S_ReceiveData
    bsp_gyro_accal.o(i.BMI088_init) refers to bsp_gyro_accal.o(i.bmi088_accel_self_test) for bmi088_accel_self_test
    bsp_gyro_accal.o(i.BMI088_init) refers to stm32f4xx_gpio.o(i.GPIO_ResetBits) for GPIO_ResetBits
    bsp_gyro_accal.o(i.BMI088_init) refers to bsp_spi.o(i.SPI_ReadWriteByte) for SPI_ReadWriteByte
    bsp_gyro_accal.o(i.BMI088_init) refers to stm32f4xx_gpio.o(i.GPIO_SetBits) for GPIO_SetBits
    bsp_gyro_accal.o(i.BMI088_init) refers to bsp_delay.o(i.BMI088_delay_us) for BMI088_delay_us
    bsp_gyro_accal.o(i.BMI088_init) refers to bsp_delay.o(i.BMI088_delay_ms) for BMI088_delay_ms
    bsp_gyro_accal.o(i.BMI088_init) refers to bsp_gyro_accal.o(i.bmi088_gyro_self_test) for bmi088_gyro_self_test
    bsp_gyro_accal.o(i.BMI088_init) refers to bsp_gyro_accal.o(i.bmi088_gyro_init) for bmi088_gyro_init
    bsp_gyro_accal.o(i.BMI088_init) refers to bsp_gyro_accal.o(.data) for .data
    bsp_gyro_accal.o(i.BMI088_read) refers to bsp_spi.o(i.SPI_ReadWriteByte) for SPI_ReadWriteByte
    bsp_gyro_accal.o(i.BMI088_read) refers to stm32f4xx_gpio.o(i.GPIO_ResetBits) for GPIO_ResetBits
    bsp_gyro_accal.o(i.BMI088_read) refers to stm32f4xx_gpio.o(i.GPIO_SetBits) for GPIO_SetBits
    bsp_gyro_accal.o(i.BMI088_read) refers to bsp_gyro_accal.o(.data) for .data
    bsp_gyro_accal.o(i.bmi088_accel_self_test) refers to stm32f4xx_gpio.o(i.GPIO_ResetBits) for GPIO_ResetBits
    bsp_gyro_accal.o(i.bmi088_accel_self_test) refers to bsp_spi.o(i.SPI_ReadWriteByte) for SPI_ReadWriteByte
    bsp_gyro_accal.o(i.bmi088_accel_self_test) refers to stm32f4xx_gpio.o(i.GPIO_SetBits) for GPIO_SetBits
    bsp_gyro_accal.o(i.bmi088_accel_self_test) refers to bsp_delay.o(i.BMI088_delay_us) for BMI088_delay_us
    bsp_gyro_accal.o(i.bmi088_accel_self_test) refers to bsp_delay.o(i.BMI088_delay_ms) for BMI088_delay_ms
    bsp_gyro_accal.o(i.bmi088_accel_self_test) refers to bsp_gyro_accal.o(.constdata) for .constdata
    bsp_gyro_accal.o(i.bmi088_gyro_init) refers to stm32f4xx_gpio.o(i.GPIO_ResetBits) for GPIO_ResetBits
    bsp_gyro_accal.o(i.bmi088_gyro_init) refers to bsp_spi.o(i.SPI_ReadWriteByte) for SPI_ReadWriteByte
    bsp_gyro_accal.o(i.bmi088_gyro_init) refers to stm32f4xx_gpio.o(i.GPIO_SetBits) for GPIO_SetBits
    bsp_gyro_accal.o(i.bmi088_gyro_init) refers to bsp_delay.o(i.BMI088_delay_us) for BMI088_delay_us
    bsp_gyro_accal.o(i.bmi088_gyro_init) refers to bsp_delay.o(i.BMI088_delay_ms) for BMI088_delay_ms
    bsp_gyro_accal.o(i.bmi088_gyro_init) refers to bsp_gyro_accal.o(.data) for .data
    bsp_gyro_accal.o(i.bmi088_gyro_self_test) refers to stm32f4xx_gpio.o(i.GPIO_ResetBits) for GPIO_ResetBits
    bsp_gyro_accal.o(i.bmi088_gyro_self_test) refers to bsp_spi.o(i.SPI_ReadWriteByte) for SPI_ReadWriteByte
    bsp_gyro_accal.o(i.bmi088_gyro_self_test) refers to stm32f4xx_gpio.o(i.GPIO_SetBits) for GPIO_SetBits
    bsp_gyro_accal.o(i.bmi088_gyro_self_test) refers to bsp_delay.o(i.BMI088_delay_us) for BMI088_delay_us
    bsp_gyro_accal.o(i.bmi088_gyro_self_test) refers to bsp_delay.o(i.BMI088_delay_ms) for BMI088_delay_ms
    ahrs_middleware.o(i.AHRS_acosf) refers to acosf.o(i.__hardfp_acosf) for __hardfp_acosf
    ahrs_middleware.o(i.AHRS_asinf) refers to asinf.o(i.__hardfp_asinf) for __hardfp_asinf
    ahrs_middleware.o(i.AHRS_atan2f) refers to atan2f.o(i.__hardfp_atan2f) for __hardfp_atan2f
    ahrs_middleware.o(i.AHRS_cosf) refers to arm_cos_f32.o(.text) for arm_cos_f32
    ahrs_middleware.o(i.AHRS_invSqrt) refers to sqrtf_full.o(i.__hardfp_sqrtf) for __hardfp_sqrtf
    ahrs_middleware.o(i.AHRS_sinf) refers to arm_sin_f32.o(.text) for arm_sin_f32
    ahrs_middleware.o(i.AHRS_tanf) refers to tanf.o(i.__hardfp_tanf) for __hardfp_tanf
    event_groups.o(i.vEventGroupClearBitsCallback) refers to port.o(i.vPortEnterCritical) for vPortEnterCritical
    event_groups.o(i.vEventGroupClearBitsCallback) refers to port.o(i.vPortExitCritical) for vPortExitCritical
    event_groups.o(i.vEventGroupDelete) refers to tasks.o(i.vTaskSuspendAll) for vTaskSuspendAll
    event_groups.o(i.vEventGroupDelete) refers to tasks.o(i.vTaskRemoveFromUnorderedEventList) for vTaskRemoveFromUnorderedEventList
    event_groups.o(i.vEventGroupDelete) refers to tasks.o(i.xTaskResumeAll) for xTaskResumeAll
    event_groups.o(i.vEventGroupDelete) refers to heap_4.o(i.vPortFree) for vPortFree
    event_groups.o(i.vEventGroupSetBitsCallback) refers to event_groups.o(i.xEventGroupSetBits) for xEventGroupSetBits
    event_groups.o(i.xEventGroupClearBits) refers to port.o(i.vPortEnterCritical) for vPortEnterCritical
    event_groups.o(i.xEventGroupClearBits) refers to port.o(i.vPortExitCritical) for vPortExitCritical
    event_groups.o(i.xEventGroupCreate) refers to heap_4.o(i.pvPortMalloc) for pvPortMalloc
    event_groups.o(i.xEventGroupCreate) refers to list.o(i.vListInitialise) for vListInitialise
    event_groups.o(i.xEventGroupSetBits) refers to tasks.o(i.vTaskSuspendAll) for vTaskSuspendAll
    event_groups.o(i.xEventGroupSetBits) refers to tasks.o(i.vTaskRemoveFromUnorderedEventList) for vTaskRemoveFromUnorderedEventList
    event_groups.o(i.xEventGroupSetBits) refers to tasks.o(i.xTaskResumeAll) for xTaskResumeAll
    event_groups.o(i.xEventGroupSync) refers to tasks.o(i.xTaskGetSchedulerState) for xTaskGetSchedulerState
    event_groups.o(i.xEventGroupSync) refers to tasks.o(i.vTaskSuspendAll) for vTaskSuspendAll
    event_groups.o(i.xEventGroupSync) refers to event_groups.o(i.xEventGroupSetBits) for xEventGroupSetBits
    event_groups.o(i.xEventGroupSync) refers to tasks.o(i.vTaskPlaceOnUnorderedEventList) for vTaskPlaceOnUnorderedEventList
    event_groups.o(i.xEventGroupSync) refers to tasks.o(i.xTaskResumeAll) for xTaskResumeAll
    event_groups.o(i.xEventGroupSync) refers to tasks.o(i.uxTaskResetEventItemValue) for uxTaskResetEventItemValue
    event_groups.o(i.xEventGroupSync) refers to port.o(i.vPortEnterCritical) for vPortEnterCritical
    event_groups.o(i.xEventGroupSync) refers to port.o(i.vPortExitCritical) for vPortExitCritical
    event_groups.o(i.xEventGroupWaitBits) refers to tasks.o(i.xTaskGetSchedulerState) for xTaskGetSchedulerState
    event_groups.o(i.xEventGroupWaitBits) refers to tasks.o(i.vTaskSuspendAll) for vTaskSuspendAll
    event_groups.o(i.xEventGroupWaitBits) refers to tasks.o(i.xTaskResumeAll) for xTaskResumeAll
    event_groups.o(i.xEventGroupWaitBits) refers to tasks.o(i.vTaskPlaceOnUnorderedEventList) for vTaskPlaceOnUnorderedEventList
    event_groups.o(i.xEventGroupWaitBits) refers to tasks.o(i.uxTaskResetEventItemValue) for uxTaskResetEventItemValue
    event_groups.o(i.xEventGroupWaitBits) refers to port.o(i.vPortEnterCritical) for vPortEnterCritical
    event_groups.o(i.xEventGroupWaitBits) refers to port.o(i.vPortExitCritical) for vPortExitCritical
    queue.o(i.pcQueueGetName) refers to queue.o(.bss) for .bss
    queue.o(i.prvUnlockQueue) refers to port.o(i.vPortEnterCritical) for vPortEnterCritical
    queue.o(i.prvUnlockQueue) refers to tasks.o(i.xTaskRemoveFromEventList) for xTaskRemoveFromEventList
    queue.o(i.prvUnlockQueue) refers to tasks.o(i.vTaskMissedYield) for vTaskMissedYield
    queue.o(i.prvUnlockQueue) refers to port.o(i.vPortExitCritical) for vPortExitCritical
    queue.o(i.uxQueueMessagesWaiting) refers to port.o(i.vPortEnterCritical) for vPortEnterCritical
    queue.o(i.uxQueueMessagesWaiting) refers to port.o(i.vPortExitCritical) for vPortExitCritical
    queue.o(i.uxQueueSpacesAvailable) refers to port.o(i.vPortEnterCritical) for vPortEnterCritical
    queue.o(i.uxQueueSpacesAvailable) refers to port.o(i.vPortExitCritical) for vPortExitCritical
    queue.o(i.vQueueAddToRegistry) refers to queue.o(.bss) for .bss
    queue.o(i.vQueueDelete) refers to heap_4.o(i.vPortFree) for vPortFree
    queue.o(i.vQueueDelete) refers to queue.o(.bss) for .bss
    queue.o(i.vQueueUnregisterQueue) refers to queue.o(.bss) for .bss
    queue.o(i.vQueueWaitForMessageRestricted) refers to port.o(i.vPortEnterCritical) for vPortEnterCritical
    queue.o(i.vQueueWaitForMessageRestricted) refers to port.o(i.vPortExitCritical) for vPortExitCritical
    queue.o(i.vQueueWaitForMessageRestricted) refers to tasks.o(i.vTaskPlaceOnEventListRestricted) for vTaskPlaceOnEventListRestricted
    queue.o(i.vQueueWaitForMessageRestricted) refers to queue.o(i.prvUnlockQueue) for prvUnlockQueue
    queue.o(i.xQueueCreateCountingSemaphore) refers to queue.o(i.xQueueGenericCreate) for xQueueGenericCreate
    queue.o(i.xQueueCreateMutex) refers to queue.o(i.xQueueGenericCreate) for xQueueGenericCreate
    queue.o(i.xQueueCreateMutex) refers to queue.o(i.xQueueGenericSend) for xQueueGenericSend
    queue.o(i.xQueueGenericCreate) refers to heap_4.o(i.pvPortMalloc) for pvPortMalloc
    queue.o(i.xQueueGenericCreate) refers to port.o(i.vPortEnterCritical) for vPortEnterCritical
    queue.o(i.xQueueGenericCreate) refers to list.o(i.vListInitialise) for vListInitialise
    queue.o(i.xQueueGenericCreate) refers to port.o(i.vPortExitCritical) for vPortExitCritical
    queue.o(i.xQueueGenericReset) refers to port.o(i.vPortEnterCritical) for vPortEnterCritical
    queue.o(i.xQueueGenericReset) refers to list.o(i.vListInitialise) for vListInitialise
    queue.o(i.xQueueGenericReset) refers to port.o(i.vPortExitCritical) for vPortExitCritical
    queue.o(i.xQueueGenericReset) refers to tasks.o(i.xTaskRemoveFromEventList) for xTaskRemoveFromEventList
    queue.o(i.xQueueGenericSend) refers to tasks.o(i.xTaskGetSchedulerState) for xTaskGetSchedulerState
    queue.o(i.xQueueGenericSend) refers to port.o(i.vPortEnterCritical) for vPortEnterCritical
    queue.o(i.xQueueGenericSend) refers to memcpya.o(.text) for __aeabi_memcpy
    queue.o(i.xQueueGenericSend) refers to tasks.o(i.xTaskPriorityDisinherit) for xTaskPriorityDisinherit
    queue.o(i.xQueueGenericSend) refers to tasks.o(i.xTaskRemoveFromEventList) for xTaskRemoveFromEventList
    queue.o(i.xQueueGenericSend) refers to port.o(i.vPortExitCritical) for vPortExitCritical
    queue.o(i.xQueueGenericSend) refers to tasks.o(i.vTaskInternalSetTimeOutState) for vTaskInternalSetTimeOutState
    queue.o(i.xQueueGenericSend) refers to tasks.o(i.vTaskSuspendAll) for vTaskSuspendAll
    queue.o(i.xQueueGenericSend) refers to tasks.o(i.xTaskCheckForTimeOut) for xTaskCheckForTimeOut
    queue.o(i.xQueueGenericSend) refers to queue.o(i.prvUnlockQueue) for prvUnlockQueue
    queue.o(i.xQueueGenericSend) refers to tasks.o(i.xTaskResumeAll) for xTaskResumeAll
    queue.o(i.xQueueGenericSend) refers to tasks.o(i.vTaskPlaceOnEventList) for vTaskPlaceOnEventList
    queue.o(i.xQueueGenericSendFromISR) refers to port.o(i.vPortValidateInterruptPriority) for vPortValidateInterruptPriority
    queue.o(i.xQueueGenericSendFromISR) refers to memcpya.o(.text) for __aeabi_memcpy
    queue.o(i.xQueueGenericSendFromISR) refers to tasks.o(i.xTaskPriorityDisinherit) for xTaskPriorityDisinherit
    queue.o(i.xQueueGenericSendFromISR) refers to tasks.o(i.uxTaskGetNumberOfTasks) for uxTaskGetNumberOfTasks
    queue.o(i.xQueueGenericSendFromISR) refers to tasks.o(i.xTaskRemoveFromEventList) for xTaskRemoveFromEventList
    queue.o(i.xQueueGiveFromISR) refers to port.o(i.vPortValidateInterruptPriority) for vPortValidateInterruptPriority
    queue.o(i.xQueueGiveFromISR) refers to tasks.o(i.uxTaskGetNumberOfTasks) for uxTaskGetNumberOfTasks
    queue.o(i.xQueueGiveFromISR) refers to tasks.o(i.xTaskRemoveFromEventList) for xTaskRemoveFromEventList
    queue.o(i.xQueueGiveMutexRecursive) refers to tasks.o(i.xTaskGetCurrentTaskHandle) for xTaskGetCurrentTaskHandle
    queue.o(i.xQueueGiveMutexRecursive) refers to queue.o(i.xQueueGenericSend) for xQueueGenericSend
    queue.o(i.xQueuePeek) refers to tasks.o(i.xTaskGetSchedulerState) for xTaskGetSchedulerState
    queue.o(i.xQueuePeek) refers to port.o(i.vPortEnterCritical) for vPortEnterCritical
    queue.o(i.xQueuePeek) refers to memcpya.o(.text) for __aeabi_memcpy
    queue.o(i.xQueuePeek) refers to tasks.o(i.xTaskRemoveFromEventList) for xTaskRemoveFromEventList
    queue.o(i.xQueuePeek) refers to port.o(i.vPortExitCritical) for vPortExitCritical
    queue.o(i.xQueuePeek) refers to tasks.o(i.vTaskInternalSetTimeOutState) for vTaskInternalSetTimeOutState
    queue.o(i.xQueuePeek) refers to tasks.o(i.vTaskSuspendAll) for vTaskSuspendAll
    queue.o(i.xQueuePeek) refers to tasks.o(i.xTaskCheckForTimeOut) for xTaskCheckForTimeOut
    queue.o(i.xQueuePeek) refers to queue.o(i.prvUnlockQueue) for prvUnlockQueue
    queue.o(i.xQueuePeek) refers to tasks.o(i.xTaskResumeAll) for xTaskResumeAll
    queue.o(i.xQueuePeek) refers to tasks.o(i.vTaskPlaceOnEventList) for vTaskPlaceOnEventList
    queue.o(i.xQueuePeekFromISR) refers to port.o(i.vPortValidateInterruptPriority) for vPortValidateInterruptPriority
    queue.o(i.xQueuePeekFromISR) refers to memcpya.o(.text) for __aeabi_memcpy
    queue.o(i.xQueueReceive) refers to tasks.o(i.xTaskGetSchedulerState) for xTaskGetSchedulerState
    queue.o(i.xQueueReceive) refers to port.o(i.vPortEnterCritical) for vPortEnterCritical
    queue.o(i.xQueueReceive) refers to memcpya.o(.text) for __aeabi_memcpy
    queue.o(i.xQueueReceive) refers to tasks.o(i.xTaskRemoveFromEventList) for xTaskRemoveFromEventList
    queue.o(i.xQueueReceive) refers to port.o(i.vPortExitCritical) for vPortExitCritical
    queue.o(i.xQueueReceive) refers to tasks.o(i.vTaskInternalSetTimeOutState) for vTaskInternalSetTimeOutState
    queue.o(i.xQueueReceive) refers to tasks.o(i.vTaskSuspendAll) for vTaskSuspendAll
    queue.o(i.xQueueReceive) refers to tasks.o(i.xTaskCheckForTimeOut) for xTaskCheckForTimeOut
    queue.o(i.xQueueReceive) refers to queue.o(i.prvUnlockQueue) for prvUnlockQueue
    queue.o(i.xQueueReceive) refers to tasks.o(i.xTaskResumeAll) for xTaskResumeAll
    queue.o(i.xQueueReceive) refers to tasks.o(i.vTaskPlaceOnEventList) for vTaskPlaceOnEventList
    queue.o(i.xQueueReceiveFromISR) refers to port.o(i.vPortValidateInterruptPriority) for vPortValidateInterruptPriority
    queue.o(i.xQueueReceiveFromISR) refers to memcpya.o(.text) for __aeabi_memcpy
    queue.o(i.xQueueReceiveFromISR) refers to tasks.o(i.uxTaskGetNumberOfTasks) for uxTaskGetNumberOfTasks
    queue.o(i.xQueueReceiveFromISR) refers to tasks.o(i.xTaskRemoveFromEventList) for xTaskRemoveFromEventList
    queue.o(i.xQueueSemaphoreTake) refers to tasks.o(i.xTaskGetSchedulerState) for xTaskGetSchedulerState
    queue.o(i.xQueueSemaphoreTake) refers to port.o(i.vPortEnterCritical) for vPortEnterCritical
    queue.o(i.xQueueSemaphoreTake) refers to tasks.o(i.pvTaskIncrementMutexHeldCount) for pvTaskIncrementMutexHeldCount
    queue.o(i.xQueueSemaphoreTake) refers to tasks.o(i.xTaskRemoveFromEventList) for xTaskRemoveFromEventList
    queue.o(i.xQueueSemaphoreTake) refers to port.o(i.vPortExitCritical) for vPortExitCritical
    queue.o(i.xQueueSemaphoreTake) refers to tasks.o(i.vTaskInternalSetTimeOutState) for vTaskInternalSetTimeOutState
    queue.o(i.xQueueSemaphoreTake) refers to tasks.o(i.vTaskSuspendAll) for vTaskSuspendAll
    queue.o(i.xQueueSemaphoreTake) refers to tasks.o(i.xTaskCheckForTimeOut) for xTaskCheckForTimeOut
    queue.o(i.xQueueSemaphoreTake) refers to queue.o(i.prvUnlockQueue) for prvUnlockQueue
    queue.o(i.xQueueSemaphoreTake) refers to tasks.o(i.xTaskResumeAll) for xTaskResumeAll
    queue.o(i.xQueueSemaphoreTake) refers to tasks.o(i.xTaskPriorityInherit) for xTaskPriorityInherit
    queue.o(i.xQueueSemaphoreTake) refers to tasks.o(i.vTaskPlaceOnEventList) for vTaskPlaceOnEventList
    queue.o(i.xQueueSemaphoreTake) refers to tasks.o(i.vTaskPriorityDisinheritAfterTimeout) for vTaskPriorityDisinheritAfterTimeout
    queue.o(i.xQueueTakeMutexRecursive) refers to tasks.o(i.xTaskGetCurrentTaskHandle) for xTaskGetCurrentTaskHandle
    queue.o(i.xQueueTakeMutexRecursive) refers to queue.o(i.xQueueSemaphoreTake) for xQueueSemaphoreTake
    tasks.o(i.eTaskGetState) refers to port.o(i.vPortEnterCritical) for vPortEnterCritical
    tasks.o(i.eTaskGetState) refers to port.o(i.vPortExitCritical) for vPortExitCritical
    tasks.o(i.eTaskGetState) refers to tasks.o(.data) for .data
    tasks.o(i.eTaskGetState) refers to tasks.o(.bss) for .bss
    tasks.o(i.pcTaskGetName) refers to tasks.o(.data) for .data
    tasks.o(i.prvAddCurrentTaskToDelayedList) refers to list.o(i.uxListRemove) for uxListRemove
    tasks.o(i.prvAddCurrentTaskToDelayedList) refers to list.o(i.vListInsert) for vListInsert
    tasks.o(i.prvAddCurrentTaskToDelayedList) refers to tasks.o(.data) for .data
    tasks.o(i.prvAddCurrentTaskToDelayedList) refers to tasks.o(.bss) for .bss
    tasks.o(i.prvIdleTask) refers to port.o(i.vPortEnterCritical) for vPortEnterCritical
    tasks.o(i.prvIdleTask) refers to list.o(i.uxListRemove) for uxListRemove
    tasks.o(i.prvIdleTask) refers to port.o(i.vPortExitCritical) for vPortExitCritical
    tasks.o(i.prvIdleTask) refers to heap_4.o(i.vPortFree) for vPortFree
    tasks.o(i.prvIdleTask) refers to tasks.o(.data) for .data
    tasks.o(i.prvIdleTask) refers to tasks.o(.bss) for .bss
    tasks.o(i.prvListTasksWithinSingleList) refers to tasks.o(i.xTaskResumeAll) for xTaskResumeAll
    tasks.o(i.prvListTasksWithinSingleList) refers to port.o(i.vPortEnterCritical) for vPortEnterCritical
    tasks.o(i.prvListTasksWithinSingleList) refers to port.o(i.vPortExitCritical) for vPortExitCritical
    tasks.o(i.prvListTasksWithinSingleList) refers to tasks.o(.data) for .data
    tasks.o(i.prvListTasksWithinSingleList) refers to tasks.o(.bss) for .bss
    tasks.o(i.pvTaskIncrementMutexHeldCount) refers to tasks.o(.data) for .data
    tasks.o(i.ulTaskGenericNotifyTake) refers to port.o(i.vPortEnterCritical) for vPortEnterCritical
    tasks.o(i.ulTaskGenericNotifyTake) refers to tasks.o(i.prvAddCurrentTaskToDelayedList) for prvAddCurrentTaskToDelayedList
    tasks.o(i.ulTaskGenericNotifyTake) refers to port.o(i.vPortExitCritical) for vPortExitCritical
    tasks.o(i.ulTaskGenericNotifyTake) refers to tasks.o(.data) for .data
    tasks.o(i.ulTaskGenericNotifyValueClear) refers to port.o(i.vPortEnterCritical) for vPortEnterCritical
    tasks.o(i.ulTaskGenericNotifyValueClear) refers to port.o(i.vPortExitCritical) for vPortExitCritical
    tasks.o(i.ulTaskGenericNotifyValueClear) refers to tasks.o(.data) for .data
    tasks.o(i.uxTaskGetNumberOfTasks) refers to tasks.o(.data) for .data
    tasks.o(i.uxTaskGetSystemState) refers to tasks.o(i.prvListTasksWithinSingleList) for prvListTasksWithinSingleList
    tasks.o(i.uxTaskGetSystemState) refers to tasks.o(i.xTaskResumeAll) for xTaskResumeAll
    tasks.o(i.uxTaskGetSystemState) refers to tasks.o(.data) for .data
    tasks.o(i.uxTaskGetSystemState) refers to tasks.o(.bss) for .bss
    tasks.o(i.uxTaskPriorityGet) refers to port.o(i.vPortEnterCritical) for vPortEnterCritical
    tasks.o(i.uxTaskPriorityGet) refers to port.o(i.vPortExitCritical) for vPortExitCritical
    tasks.o(i.uxTaskPriorityGet) refers to tasks.o(.data) for .data
    tasks.o(i.uxTaskPriorityGetFromISR) refers to port.o(i.vPortValidateInterruptPriority) for vPortValidateInterruptPriority
    tasks.o(i.uxTaskPriorityGetFromISR) refers to tasks.o(.data) for .data
    tasks.o(i.uxTaskResetEventItemValue) refers to tasks.o(.data) for .data
    tasks.o(i.vTaskDelay) refers to tasks.o(i.prvAddCurrentTaskToDelayedList) for prvAddCurrentTaskToDelayedList
    tasks.o(i.vTaskDelay) refers to tasks.o(i.xTaskResumeAll) for xTaskResumeAll
    tasks.o(i.vTaskDelay) refers to tasks.o(.data) for .data
    tasks.o(i.vTaskDelete) refers to port.o(i.vPortEnterCritical) for vPortEnterCritical
    tasks.o(i.vTaskDelete) refers to list.o(i.uxListRemove) for uxListRemove
    tasks.o(i.vTaskDelete) refers to list.o(i.vListInsertEnd) for vListInsertEnd
    tasks.o(i.vTaskDelete) refers to port.o(i.vPortExitCritical) for vPortExitCritical
    tasks.o(i.vTaskDelete) refers to heap_4.o(i.vPortFree) for vPortFree
    tasks.o(i.vTaskDelete) refers to tasks.o(.data) for .data
    tasks.o(i.vTaskDelete) refers to tasks.o(.bss) for .bss
    tasks.o(i.vTaskEndScheduler) refers to port.o(i.vPortEndScheduler) for vPortEndScheduler
    tasks.o(i.vTaskEndScheduler) refers to tasks.o(.data) for .data
    tasks.o(i.vTaskGenericNotifyGiveFromISR) refers to port.o(i.vPortValidateInterruptPriority) for vPortValidateInterruptPriority
    tasks.o(i.vTaskGenericNotifyGiveFromISR) refers to tasks.o(.data) for .data
    tasks.o(i.vTaskGenericNotifyGiveFromISR) refers to tasks.o(.bss) for .bss
    tasks.o(i.vTaskGetInfo) refers to tasks.o(i.xTaskResumeAll) for xTaskResumeAll
    tasks.o(i.vTaskGetInfo) refers to port.o(i.vPortEnterCritical) for vPortEnterCritical
    tasks.o(i.vTaskGetInfo) refers to port.o(i.vPortExitCritical) for vPortExitCritical
    tasks.o(i.vTaskGetInfo) refers to tasks.o(.data) for .data
    tasks.o(i.vTaskGetInfo) refers to tasks.o(.bss) for .bss
    tasks.o(i.vTaskInternalSetTimeOutState) refers to tasks.o(.data) for .data
    tasks.o(i.vTaskMissedYield) refers to tasks.o(.data) for .data
    tasks.o(i.vTaskPlaceOnEventList) refers to list.o(i.vListInsert) for vListInsert
    tasks.o(i.vTaskPlaceOnEventList) refers to tasks.o(i.prvAddCurrentTaskToDelayedList) for prvAddCurrentTaskToDelayedList
    tasks.o(i.vTaskPlaceOnEventList) refers to tasks.o(.data) for .data
    tasks.o(i.vTaskPlaceOnEventListRestricted) refers to tasks.o(i.prvAddCurrentTaskToDelayedList) for prvAddCurrentTaskToDelayedList
    tasks.o(i.vTaskPlaceOnEventListRestricted) refers to tasks.o(.data) for .data
    tasks.o(i.vTaskPlaceOnUnorderedEventList) refers to tasks.o(i.prvAddCurrentTaskToDelayedList) for prvAddCurrentTaskToDelayedList
    tasks.o(i.vTaskPlaceOnUnorderedEventList) refers to tasks.o(.data) for .data
    tasks.o(i.vTaskPriorityDisinheritAfterTimeout) refers to list.o(i.uxListRemove) for uxListRemove
    tasks.o(i.vTaskPriorityDisinheritAfterTimeout) refers to tasks.o(.data) for .data
    tasks.o(i.vTaskPriorityDisinheritAfterTimeout) refers to tasks.o(.bss) for .bss
    tasks.o(i.vTaskPrioritySet) refers to port.o(i.vPortEnterCritical) for vPortEnterCritical
    tasks.o(i.vTaskPrioritySet) refers to list.o(i.uxListRemove) for uxListRemove
    tasks.o(i.vTaskPrioritySet) refers to port.o(i.vPortExitCritical) for vPortExitCritical
    tasks.o(i.vTaskPrioritySet) refers to tasks.o(.data) for .data
    tasks.o(i.vTaskPrioritySet) refers to tasks.o(.bss) for .bss
    tasks.o(i.vTaskRemoveFromUnorderedEventList) refers to tasks.o(.data) for .data
    tasks.o(i.vTaskRemoveFromUnorderedEventList) refers to tasks.o(.bss) for .bss
    tasks.o(i.vTaskResume) refers to port.o(i.vPortEnterCritical) for vPortEnterCritical
    tasks.o(i.vTaskResume) refers to list.o(i.uxListRemove) for uxListRemove
    tasks.o(i.vTaskResume) refers to port.o(i.vPortExitCritical) for vPortExitCritical
    tasks.o(i.vTaskResume) refers to tasks.o(.data) for .data
    tasks.o(i.vTaskResume) refers to tasks.o(.bss) for .bss
    tasks.o(i.vTaskSetTimeOutState) refers to port.o(i.vPortEnterCritical) for vPortEnterCritical
    tasks.o(i.vTaskSetTimeOutState) refers to port.o(i.vPortExitCritical) for vPortExitCritical
    tasks.o(i.vTaskSetTimeOutState) refers to tasks.o(.data) for .data
    tasks.o(i.vTaskStartScheduler) refers to tasks.o(i.xTaskCreate) for xTaskCreate
    tasks.o(i.vTaskStartScheduler) refers to timers.o(i.xTimerCreateTimerTask) for xTimerCreateTimerTask
    tasks.o(i.vTaskStartScheduler) refers to port.o(i.xPortStartScheduler) for xPortStartScheduler
    tasks.o(i.vTaskStartScheduler) refers to tasks.o(.data) for .data
    tasks.o(i.vTaskStartScheduler) refers to tasks.o(i.prvIdleTask) for prvIdleTask
    tasks.o(i.vTaskSuspend) refers to port.o(i.vPortEnterCritical) for vPortEnterCritical
    tasks.o(i.vTaskSuspend) refers to list.o(i.uxListRemove) for uxListRemove
    tasks.o(i.vTaskSuspend) refers to list.o(i.vListInsertEnd) for vListInsertEnd
    tasks.o(i.vTaskSuspend) refers to port.o(i.vPortExitCritical) for vPortExitCritical
    tasks.o(i.vTaskSuspend) refers to tasks.o(.data) for .data
    tasks.o(i.vTaskSuspend) refers to tasks.o(.bss) for .bss
    tasks.o(i.vTaskSuspendAll) refers to tasks.o(.data) for .data
    tasks.o(i.vTaskSwitchContext) refers to tasks.o(.data) for .data
    tasks.o(i.vTaskSwitchContext) refers to tasks.o(.bss) for .bss
    tasks.o(i.xTaskCatchUpTicks) refers to port.o(i.vPortEnterCritical) for vPortEnterCritical
    tasks.o(i.xTaskCatchUpTicks) refers to port.o(i.vPortExitCritical) for vPortExitCritical
    tasks.o(i.xTaskCatchUpTicks) refers to tasks.o(i.xTaskResumeAll) for xTaskResumeAll
    tasks.o(i.xTaskCatchUpTicks) refers to tasks.o(.data) for .data
    tasks.o(i.xTaskCheckForTimeOut) refers to port.o(i.vPortEnterCritical) for vPortEnterCritical
    tasks.o(i.xTaskCheckForTimeOut) refers to port.o(i.vPortExitCritical) for vPortExitCritical
    tasks.o(i.xTaskCheckForTimeOut) refers to tasks.o(.data) for .data
    tasks.o(i.xTaskCreate) refers to heap_4.o(i.pvPortMalloc) for pvPortMalloc
    tasks.o(i.xTaskCreate) refers to memseta.o(.text) for __aeabi_memclr4
    tasks.o(i.xTaskCreate) refers to heap_4.o(i.vPortFree) for vPortFree
    tasks.o(i.xTaskCreate) refers to list.o(i.vListInitialiseItem) for vListInitialiseItem
    tasks.o(i.xTaskCreate) refers to port.o(i.pxPortInitialiseStack) for pxPortInitialiseStack
    tasks.o(i.xTaskCreate) refers to port.o(i.vPortEnterCritical) for vPortEnterCritical
    tasks.o(i.xTaskCreate) refers to list.o(i.vListInitialise) for vListInitialise
    tasks.o(i.xTaskCreate) refers to port.o(i.vPortExitCritical) for vPortExitCritical
    tasks.o(i.xTaskCreate) refers to tasks.o(.data) for .data
    tasks.o(i.xTaskCreate) refers to tasks.o(.bss) for .bss
    tasks.o(i.xTaskDelayUntil) refers to tasks.o(i.prvAddCurrentTaskToDelayedList) for prvAddCurrentTaskToDelayedList
    tasks.o(i.xTaskDelayUntil) refers to tasks.o(i.xTaskResumeAll) for xTaskResumeAll
    tasks.o(i.xTaskDelayUntil) refers to tasks.o(.data) for .data
    tasks.o(i.xTaskGenericNotify) refers to port.o(i.vPortEnterCritical) for vPortEnterCritical
    tasks.o(i.xTaskGenericNotify) refers to port.o(i.vPortExitCritical) for vPortExitCritical
    tasks.o(i.xTaskGenericNotify) refers to tasks.o(.data) for .data
    tasks.o(i.xTaskGenericNotify) refers to tasks.o(.bss) for .bss
    tasks.o(i.xTaskGenericNotifyFromISR) refers to port.o(i.vPortValidateInterruptPriority) for vPortValidateInterruptPriority
    tasks.o(i.xTaskGenericNotifyFromISR) refers to tasks.o(.data) for .data
    tasks.o(i.xTaskGenericNotifyFromISR) refers to tasks.o(.bss) for .bss
    tasks.o(i.xTaskGenericNotifyStateClear) refers to port.o(i.vPortEnterCritical) for vPortEnterCritical
    tasks.o(i.xTaskGenericNotifyStateClear) refers to port.o(i.vPortExitCritical) for vPortExitCritical
    tasks.o(i.xTaskGenericNotifyStateClear) refers to tasks.o(.data) for .data
    tasks.o(i.xTaskGenericNotifyWait) refers to port.o(i.vPortEnterCritical) for vPortEnterCritical
    tasks.o(i.xTaskGenericNotifyWait) refers to tasks.o(i.prvAddCurrentTaskToDelayedList) for prvAddCurrentTaskToDelayedList
    tasks.o(i.xTaskGenericNotifyWait) refers to port.o(i.vPortExitCritical) for vPortExitCritical
    tasks.o(i.xTaskGenericNotifyWait) refers to tasks.o(.data) for .data
    tasks.o(i.xTaskGetCurrentTaskHandle) refers to tasks.o(.data) for .data
    tasks.o(i.xTaskGetSchedulerState) refers to tasks.o(.data) for .data
    tasks.o(i.xTaskGetTickCount) refers to tasks.o(.data) for .data
    tasks.o(i.xTaskGetTickCountFromISR) refers to port.o(i.vPortValidateInterruptPriority) for vPortValidateInterruptPriority
    tasks.o(i.xTaskGetTickCountFromISR) refers to tasks.o(.data) for .data
    tasks.o(i.xTaskIncrementTick) refers to tasks.o(.data) for .data
    tasks.o(i.xTaskIncrementTick) refers to tasks.o(.bss) for .bss
    tasks.o(i.xTaskPriorityDisinherit) refers to list.o(i.uxListRemove) for uxListRemove
    tasks.o(i.xTaskPriorityDisinherit) refers to tasks.o(.data) for .data
    tasks.o(i.xTaskPriorityDisinherit) refers to tasks.o(.bss) for .bss
    tasks.o(i.xTaskPriorityInherit) refers to list.o(i.uxListRemove) for uxListRemove
    tasks.o(i.xTaskPriorityInherit) refers to tasks.o(.data) for .data
    tasks.o(i.xTaskPriorityInherit) refers to tasks.o(.bss) for .bss
    tasks.o(i.xTaskRemoveFromEventList) refers to tasks.o(.data) for .data
    tasks.o(i.xTaskRemoveFromEventList) refers to tasks.o(.bss) for .bss
    tasks.o(i.xTaskResumeAll) refers to port.o(i.vPortEnterCritical) for vPortEnterCritical
    tasks.o(i.xTaskResumeAll) refers to tasks.o(i.xTaskIncrementTick) for xTaskIncrementTick
    tasks.o(i.xTaskResumeAll) refers to port.o(i.vPortExitCritical) for vPortExitCritical
    tasks.o(i.xTaskResumeAll) refers to tasks.o(.data) for .data
    tasks.o(i.xTaskResumeAll) refers to tasks.o(.bss) for .bss
    tasks.o(i.xTaskResumeFromISR) refers to port.o(i.vPortValidateInterruptPriority) for vPortValidateInterruptPriority
    tasks.o(i.xTaskResumeFromISR) refers to list.o(i.vListInsertEnd) for vListInsertEnd
    tasks.o(i.xTaskResumeFromISR) refers to list.o(i.uxListRemove) for uxListRemove
    tasks.o(i.xTaskResumeFromISR) refers to tasks.o(.bss) for .bss
    tasks.o(i.xTaskResumeFromISR) refers to tasks.o(.data) for .data
    timers.o(i.prvProcessExpiredTimer) refers to list.o(i.uxListRemove) for uxListRemove
    timers.o(i.prvProcessExpiredTimer) refers to list.o(i.vListInsert) for vListInsert
    timers.o(i.prvProcessExpiredTimer) refers to timers.o(.data) for .data
    timers.o(i.prvSampleTimeNow) refers to tasks.o(i.xTaskGetTickCount) for xTaskGetTickCount
    timers.o(i.prvSampleTimeNow) refers to list.o(i.uxListRemove) for uxListRemove
    timers.o(i.prvSampleTimeNow) refers to list.o(i.vListInsert) for vListInsert
    timers.o(i.prvSampleTimeNow) refers to timers.o(.data) for .data
    timers.o(i.prvTimerTask) refers to tasks.o(i.vTaskSuspendAll) for vTaskSuspendAll
    timers.o(i.prvTimerTask) refers to timers.o(i.prvSampleTimeNow) for prvSampleTimeNow
    timers.o(i.prvTimerTask) refers to tasks.o(i.xTaskResumeAll) for xTaskResumeAll
    timers.o(i.prvTimerTask) refers to queue.o(i.xQueueReceive) for xQueueReceive
    timers.o(i.prvTimerTask) refers to list.o(i.uxListRemove) for uxListRemove
    timers.o(i.prvTimerTask) refers to tasks.o(i.xTaskGetTickCount) for xTaskGetTickCount
    timers.o(i.prvTimerTask) refers to queue.o(i.vQueueWaitForMessageRestricted) for vQueueWaitForMessageRestricted
    timers.o(i.prvTimerTask) refers to timers.o(i.prvProcessExpiredTimer) for prvProcessExpiredTimer
    timers.o(i.prvTimerTask) refers to list.o(i.vListInsert) for vListInsert
    timers.o(i.prvTimerTask) refers to heap_4.o(i.vPortFree) for vPortFree
    timers.o(i.prvTimerTask) refers to timers.o(.data) for .data
    timers.o(i.pvTimerGetTimerID) refers to port.o(i.vPortEnterCritical) for vPortEnterCritical
    timers.o(i.pvTimerGetTimerID) refers to port.o(i.vPortExitCritical) for vPortExitCritical
    timers.o(i.uxTimerGetReloadMode) refers to port.o(i.vPortEnterCritical) for vPortEnterCritical
    timers.o(i.uxTimerGetReloadMode) refers to port.o(i.vPortExitCritical) for vPortExitCritical
    timers.o(i.vTimerSetReloadMode) refers to port.o(i.vPortEnterCritical) for vPortEnterCritical
    timers.o(i.vTimerSetReloadMode) refers to port.o(i.vPortExitCritical) for vPortExitCritical
    timers.o(i.vTimerSetTimerID) refers to port.o(i.vPortEnterCritical) for vPortEnterCritical
    timers.o(i.vTimerSetTimerID) refers to port.o(i.vPortExitCritical) for vPortExitCritical
    timers.o(i.xTimerCreate) refers to heap_4.o(i.pvPortMalloc) for pvPortMalloc
    timers.o(i.xTimerCreate) refers to port.o(i.vPortEnterCritical) for vPortEnterCritical
    timers.o(i.xTimerCreate) refers to list.o(i.vListInitialise) for vListInitialise
    timers.o(i.xTimerCreate) refers to queue.o(i.xQueueGenericCreate) for xQueueGenericCreate
    timers.o(i.xTimerCreate) refers to queue.o(i.vQueueAddToRegistry) for vQueueAddToRegistry
    timers.o(i.xTimerCreate) refers to port.o(i.vPortExitCritical) for vPortExitCritical
    timers.o(i.xTimerCreate) refers to list.o(i.vListInitialiseItem) for vListInitialiseItem
    timers.o(i.xTimerCreate) refers to timers.o(.data) for .data
    timers.o(i.xTimerCreate) refers to timers.o(.bss) for .bss
    timers.o(i.xTimerCreate) refers to timers.o(i.xTimerCreateTimerTask) for i.xTimerCreateTimerTask
    timers.o(i.xTimerCreateTimerTask) refers to port.o(i.vPortEnterCritical) for vPortEnterCritical
    timers.o(i.xTimerCreateTimerTask) refers to list.o(i.vListInitialise) for vListInitialise
    timers.o(i.xTimerCreateTimerTask) refers to queue.o(i.xQueueGenericCreate) for xQueueGenericCreate
    timers.o(i.xTimerCreateTimerTask) refers to queue.o(i.vQueueAddToRegistry) for vQueueAddToRegistry
    timers.o(i.xTimerCreateTimerTask) refers to port.o(i.vPortExitCritical) for vPortExitCritical
    timers.o(i.xTimerCreateTimerTask) refers to tasks.o(i.xTaskCreate) for xTaskCreate
    timers.o(i.xTimerCreateTimerTask) refers to timers.o(.data) for .data
    timers.o(i.xTimerCreateTimerTask) refers to timers.o(.bss) for .bss
    timers.o(i.xTimerCreateTimerTask) refers to timers.o(i.prvTimerTask) for prvTimerTask
    timers.o(i.xTimerGenericCommand) refers to tasks.o(i.xTaskGetSchedulerState) for xTaskGetSchedulerState
    timers.o(i.xTimerGenericCommand) refers to queue.o(i.xQueueGenericSend) for xQueueGenericSend
    timers.o(i.xTimerGenericCommand) refers to queue.o(i.xQueueGenericSendFromISR) for xQueueGenericSendFromISR
    timers.o(i.xTimerGenericCommand) refers to timers.o(.data) for .data
    timers.o(i.xTimerGetReloadMode) refers to port.o(i.vPortEnterCritical) for vPortEnterCritical
    timers.o(i.xTimerGetReloadMode) refers to port.o(i.vPortExitCritical) for vPortExitCritical
    timers.o(i.xTimerGetTimerDaemonTaskHandle) refers to timers.o(.data) for .data
    timers.o(i.xTimerIsTimerActive) refers to port.o(i.vPortEnterCritical) for vPortEnterCritical
    timers.o(i.xTimerIsTimerActive) refers to port.o(i.vPortExitCritical) for vPortExitCritical
    heap_4.o(i.pvPortCalloc) refers to heap_4.o(i.pvPortMalloc) for pvPortMalloc
    heap_4.o(i.pvPortCalloc) refers to memseta.o(.text) for __aeabi_memclr
    heap_4.o(i.pvPortMalloc) refers to tasks.o(i.vTaskSuspendAll) for vTaskSuspendAll
    heap_4.o(i.pvPortMalloc) refers to tasks.o(i.xTaskResumeAll) for xTaskResumeAll
    heap_4.o(i.pvPortMalloc) refers to heap_4.o(.data) for .data
    heap_4.o(i.pvPortMalloc) refers to heap_4.o(.bss) for .bss
    heap_4.o(i.vPortFree) refers to tasks.o(i.vTaskSuspendAll) for vTaskSuspendAll
    heap_4.o(i.vPortFree) refers to tasks.o(i.xTaskResumeAll) for xTaskResumeAll
    heap_4.o(i.vPortFree) refers to heap_4.o(.data) for .data
    heap_4.o(i.vPortGetHeapStats) refers to tasks.o(i.vTaskSuspendAll) for vTaskSuspendAll
    heap_4.o(i.vPortGetHeapStats) refers to tasks.o(i.xTaskResumeAll) for xTaskResumeAll
    heap_4.o(i.vPortGetHeapStats) refers to port.o(i.vPortEnterCritical) for vPortEnterCritical
    heap_4.o(i.vPortGetHeapStats) refers to port.o(i.vPortExitCritical) for vPortExitCritical
    heap_4.o(i.vPortGetHeapStats) refers to heap_4.o(.data) for .data
    heap_4.o(i.xPortGetFreeHeapSize) refers to heap_4.o(.data) for .data
    heap_4.o(i.xPortGetMinimumEverFreeHeapSize) refers to heap_4.o(.data) for .data
    port.o(.emb_text) refers to tasks.o(i.vTaskSwitchContext) for vTaskSwitchContext
    port.o(.emb_text) refers to tasks.o(.data) for pxCurrentTCB
    port.o(i.SysTick_Handler) refers to tasks.o(i.xTaskIncrementTick) for xTaskIncrementTick
    port.o(i.prvTaskExitError) refers to port.o(.data) for .data
    port.o(i.pxPortInitialiseStack) refers to port.o(i.prvTaskExitError) for prvTaskExitError
    port.o(i.vPortEndScheduler) refers to port.o(.data) for .data
    port.o(i.vPortEnterCritical) refers to port.o(.data) for .data
    port.o(i.vPortExitCritical) refers to port.o(.data) for .data
    port.o(i.vPortSetupTimerInterrupt) refers to system_stm32f4xx.o(.data) for SystemCoreClock
    port.o(i.vPortValidateInterruptPriority) refers to port.o(.emb_text) for vPortGetIPSR
    port.o(i.vPortValidateInterruptPriority) refers to port.o(.data) for .data
    port.o(i.xPortStartScheduler) refers to port.o(i.vPortSetupTimerInterrupt) for vPortSetupTimerInterrupt
    port.o(i.xPortStartScheduler) refers to port.o(.emb_text) for __asm___6_port_c_39a90d8d__prvEnableVFP
    port.o(i.xPortStartScheduler) refers to port.o(.data) for .data
    rm_motor.o(i.RM_motor_send) refers to stm32f4xx_can.o(i.CAN_Transmit) for CAN_Transmit
    rm_motor.o(i.RM_motor_send) refers to stm32f4xx_can.o(i.CAN_TransmitStatus) for CAN_TransmitStatus
    rm_motor.o(i.motor_msg_decode_6020) refers to dflti.o(.text) for __aeabi_i2d
    rm_motor.o(i.motor_msg_decode_6020) refers to dmul.o(.text) for __aeabi_dmul
    rm_motor.o(i.motor_msg_decode_6020) refers to dfltui.o(.text) for __aeabi_ui2d
    rm_motor.o(i.motor_msg_decode_6020) refers to dadd.o(.text) for __aeabi_dadd
    rm_motor.o(i.motor_msg_decode_6020) refers to d2f.o(.text) for __aeabi_d2f
    arm_cos_f32.o(.text) refers to arm_common_tables.o(.constdata) for sinTable_f32
    arm_sin_f32.o(.text) refers to arm_common_tables.o(.constdata) for sinTable_f32
    arm_sin_cos_f32.o(.text) refers to arm_common_tables.o(.constdata) for sinTable_f32
    ahrs.o(i.AHRS_init) refers to ahrs_middleware.o(i.AHRS_get_height) for AHRS_get_height
    ahrs.o(i.AHRS_init) refers to ahrs_middleware.o(i.AHRS_get_latitude) for AHRS_get_latitude
    ahrs.o(i.AHRS_init) refers to ahrs_middleware.o(i.AHRS_sinf) for AHRS_sinf
    ahrs.o(i.AHRS_init) refers to ahrs_middleware.o(i.AHRS_invSqrt) for AHRS_invSqrt
    ahrs.o(i.AHRS_init) refers to ahrs_middleware.o(i.AHRS_asinf) for AHRS_asinf
    ahrs.o(i.AHRS_init) refers to ahrs_middleware.o(i.AHRS_atan2f) for AHRS_atan2f
    ahrs.o(i.AHRS_init) refers to ahrs_middleware.o(i.AHRS_cosf) for AHRS_cosf
    ahrs.o(i.AHRS_init) refers to ahrs.o(i.angle_to_quat) for angle_to_quat
    ahrs.o(i.AHRS_init) refers to ahrs.o(.data) for local_hight
    ahrs.o(i.AHRS_update) refers to ahrs.o(i.accel_comple_filter) for accel_comple_filter
    ahrs.o(i.AHRS_update) refers to memseta.o(.text) for __aeabi_memclr4
    ahrs.o(i.AHRS_update) refers to ahrs.o(i.update_w) for update_w
    ahrs.o(i.AHRS_update) refers to ahrs.o(i.quat_normalization) for quat_normalization
    ahrs.o(i.accel_comple_filter) refers to ahrs.o(i.accel_update_kp_ki) for accel_update_kp_ki
    ahrs.o(i.accel_comple_filter) refers to ahrs_middleware.o(i.AHRS_invSqrt) for AHRS_invSqrt
    ahrs.o(i.accel_comple_filter) refers to ahrs.o(.constdata) for .constdata
    ahrs.o(i.accel_update_kp_ki) refers to ahrs_middleware.o(i.AHRS_invSqrt) for AHRS_invSqrt
    ahrs.o(i.accel_update_kp_ki) refers to ahrs.o(i.AHRS_fabs) for AHRS_fabs
    ahrs.o(i.accel_update_kp_ki) refers to ahrs.o(.data) for carrier_gravity
    ahrs.o(i.angle_to_quat) refers to ahrs_middleware.o(i.AHRS_cosf) for AHRS_cosf
    ahrs.o(i.angle_to_quat) refers to ahrs_middleware.o(i.AHRS_sinf) for AHRS_sinf
    ahrs.o(i.get_angle) refers to ahrs_middleware.o(i.AHRS_asinf) for AHRS_asinf
    ahrs.o(i.get_angle) refers to ahrs_middleware.o(i.AHRS_atan2f) for AHRS_atan2f
    ahrs.o(i.get_carrier_gravity) refers to ahrs.o(.data) for carrier_gravity
    ahrs.o(i.get_pitch) refers to ahrs_middleware.o(i.AHRS_asinf) for AHRS_asinf
    ahrs.o(i.get_roll) refers to ahrs_middleware.o(i.AHRS_atan2f) for AHRS_atan2f
    ahrs.o(i.get_yaw) refers to ahrs_middleware.o(i.AHRS_atan2f) for AHRS_atan2f
    ahrs.o(i.quat_normalization) refers to ahrs_middleware.o(i.AHRS_invSqrt) for AHRS_invSqrt
    acosf.o(i.__hardfp_acosf) refers (Special) to iusefp.o(.text) for __I$use$fp
    acosf.o(i.__hardfp_acosf) refers to sqrtf_full.o(i.sqrtf) for sqrtf
    acosf.o(i.__hardfp_acosf) refers to funder.o(i.__mathlib_flt_infnan) for __mathlib_flt_infnan
    acosf.o(i.__hardfp_acosf) refers to errno.o(i.__set_errno) for __set_errno
    acosf.o(i.__hardfp_acosf) refers to funder.o(i.__mathlib_flt_invalid) for __mathlib_flt_invalid
    acosf.o(i.__softfp_acosf) refers (Special) to iusefp.o(.text) for __I$use$fp
    acosf.o(i.__softfp_acosf) refers to acosf.o(i.__hardfp_acosf) for __hardfp_acosf
    acosf.o(i.acosf) refers (Special) to iusefp.o(.text) for __I$use$fp
    acosf.o(i.acosf) refers to acosf.o(i.__hardfp_acosf) for __hardfp_acosf
    acosf_x.o(i.____hardfp_acosf$lsc) refers (Special) to iusefp.o(.text) for __I$use$fp
    acosf_x.o(i.____hardfp_acosf$lsc) refers to sqrtf_full.o(i.sqrtf) for sqrtf
    acosf_x.o(i.____hardfp_acosf$lsc) refers to funder.o(i.__mathlib_flt_infnan) for __mathlib_flt_infnan
    acosf_x.o(i.____hardfp_acosf$lsc) refers to errno.o(i.__set_errno) for __set_errno
    acosf_x.o(i.____softfp_acosf$lsc) refers (Special) to iusefp.o(.text) for __I$use$fp
    acosf_x.o(i.____softfp_acosf$lsc) refers to acosf_x.o(i.____hardfp_acosf$lsc) for ____hardfp_acosf$lsc
    acosf_x.o(i.__acosf$lsc) refers (Special) to iusefp.o(.text) for __I$use$fp
    acosf_x.o(i.__acosf$lsc) refers to acosf_x.o(i.____hardfp_acosf$lsc) for ____hardfp_acosf$lsc
    asinf.o(i.__hardfp_asinf) refers (Special) to iusefp.o(.text) for __I$use$fp
    asinf.o(i.__hardfp_asinf) refers to sqrtf_full.o(i.sqrtf) for sqrtf
    asinf.o(i.__hardfp_asinf) refers to fpclassifyf.o(i.__ARM_fpclassifyf) for __ARM_fpclassifyf
    asinf.o(i.__hardfp_asinf) refers to funder.o(i.__mathlib_flt_underflow) for __mathlib_flt_underflow
    asinf.o(i.__hardfp_asinf) refers to funder.o(i.__mathlib_flt_infnan) for __mathlib_flt_infnan
    asinf.o(i.__hardfp_asinf) refers to errno.o(i.__set_errno) for __set_errno
    asinf.o(i.__hardfp_asinf) refers to funder.o(i.__mathlib_flt_invalid) for __mathlib_flt_invalid
    asinf.o(i.__softfp_asinf) refers (Special) to iusefp.o(.text) for __I$use$fp
    asinf.o(i.__softfp_asinf) refers to asinf.o(i.__hardfp_asinf) for __hardfp_asinf
    asinf.o(i.asinf) refers (Special) to iusefp.o(.text) for __I$use$fp
    asinf.o(i.asinf) refers to asinf.o(i.__hardfp_asinf) for __hardfp_asinf
    asinf_x.o(i.____hardfp_asinf$lsc) refers (Special) to iusefp.o(.text) for __I$use$fp
    asinf_x.o(i.____hardfp_asinf$lsc) refers to sqrtf_full.o(i.sqrtf) for sqrtf
    asinf_x.o(i.____hardfp_asinf$lsc) refers to funder.o(i.__mathlib_flt_infnan) for __mathlib_flt_infnan
    asinf_x.o(i.____hardfp_asinf$lsc) refers to errno.o(i.__set_errno) for __set_errno
    asinf_x.o(i.____softfp_asinf$lsc) refers (Special) to iusefp.o(.text) for __I$use$fp
    asinf_x.o(i.____softfp_asinf$lsc) refers to asinf_x.o(i.____hardfp_asinf$lsc) for ____hardfp_asinf$lsc
    asinf_x.o(i.__asinf$lsc) refers (Special) to iusefp.o(.text) for __I$use$fp
    asinf_x.o(i.__asinf$lsc) refers to asinf_x.o(i.____hardfp_asinf$lsc) for ____hardfp_asinf$lsc
    atan.o(i.__hardfp_atan) refers (Special) to iusefp.o(.text) for __I$use$fp
    atan.o(i.__hardfp_atan) refers to dunder.o(i.__mathlib_dbl_infnan) for __mathlib_dbl_infnan
    atan.o(i.__hardfp_atan) refers to fpclassify.o(i.__ARM_fpclassify) for __ARM_fpclassify
    atan.o(i.__hardfp_atan) refers to dunder.o(i.__mathlib_dbl_underflow) for __mathlib_dbl_underflow
    atan.o(i.__hardfp_atan) refers to fabs.o(i.fabs) for fabs
    atan.o(i.__hardfp_atan) refers to dadd.o(.text) for __aeabi_dadd
    atan.o(i.__hardfp_atan) refers to dmul.o(.text) for __aeabi_dmul
    atan.o(i.__hardfp_atan) refers to ddiv.o(.text) for __aeabi_ddiv
    atan.o(i.__hardfp_atan) refers to poly.o(i.__kernel_poly) for __kernel_poly
    atan.o(i.__hardfp_atan) refers to atan.o(.constdata) for .constdata
    atan.o(i.__softfp_atan) refers (Special) to iusefp.o(.text) for __I$use$fp
    atan.o(i.__softfp_atan) refers to atan.o(i.__hardfp_atan) for __hardfp_atan
    atan.o(i.atan) refers (Special) to iusefp.o(.text) for __I$use$fp
    atan.o(i.atan) refers to atan.o(i.__hardfp_atan) for __hardfp_atan
    atan.o(.constdata) refers (Special) to iusefp.o(.text) for __I$use$fp
    atan_x.o(i.____hardfp_atan$lsc) refers (Special) to iusefp.o(.text) for __I$use$fp
    atan_x.o(i.____hardfp_atan$lsc) refers to dunder.o(i.__mathlib_dbl_infnan) for __mathlib_dbl_infnan
    atan_x.o(i.____hardfp_atan$lsc) refers to fabs.o(i.fabs) for fabs
    atan_x.o(i.____hardfp_atan$lsc) refers to dadd.o(.text) for __aeabi_dadd
    atan_x.o(i.____hardfp_atan$lsc) refers to dmul.o(.text) for __aeabi_dmul
    atan_x.o(i.____hardfp_atan$lsc) refers to ddiv.o(.text) for __aeabi_ddiv
    atan_x.o(i.____hardfp_atan$lsc) refers to poly.o(i.__kernel_poly) for __kernel_poly
    atan_x.o(i.____hardfp_atan$lsc) refers to atan_x.o(.constdata) for .constdata
    atan_x.o(i.____softfp_atan$lsc) refers (Special) to iusefp.o(.text) for __I$use$fp
    atan_x.o(i.____softfp_atan$lsc) refers to atan_x.o(i.____hardfp_atan$lsc) for ____hardfp_atan$lsc
    atan_x.o(i.__atan$lsc) refers (Special) to iusefp.o(.text) for __I$use$fp
    atan_x.o(i.__atan$lsc) refers to atan_x.o(i.____hardfp_atan$lsc) for ____hardfp_atan$lsc
    atan_x.o(.constdata) refers (Special) to iusefp.o(.text) for __I$use$fp
    atan2f.o(i.__hardfp_atan2f) refers (Special) to iusefp.o(.text) for __I$use$fp
    atan2f.o(i.__hardfp_atan2f) refers to fpclassifyf.o(i.__ARM_fpclassifyf) for __ARM_fpclassifyf
    atan2f.o(i.__hardfp_atan2f) refers to funder.o(i.__mathlib_flt_underflow) for __mathlib_flt_underflow
    atan2f.o(i.__hardfp_atan2f) refers to funder.o(i.__mathlib_flt_infnan2) for __mathlib_flt_infnan2
    atan2f.o(i.__softfp_atan2f) refers (Special) to iusefp.o(.text) for __I$use$fp
    atan2f.o(i.__softfp_atan2f) refers to atan2f.o(i.__hardfp_atan2f) for __hardfp_atan2f
    atan2f.o(i.atan2f) refers (Special) to iusefp.o(.text) for __I$use$fp
    atan2f.o(i.atan2f) refers to atan2f.o(i.__hardfp_atan2f) for __hardfp_atan2f
    atan2f_x.o(i.____hardfp_atan2f$lsc) refers (Special) to iusefp.o(.text) for __I$use$fp
    atan2f_x.o(i.____hardfp_atan2f$lsc) refers to funder.o(i.__mathlib_flt_infnan2) for __mathlib_flt_infnan2
    atan2f_x.o(i.____hardfp_atan2f$lsc) refers to errno.o(i.__set_errno) for __set_errno
    atan2f_x.o(i.____softfp_atan2f$lsc) refers (Special) to iusefp.o(.text) for __I$use$fp
    atan2f_x.o(i.____softfp_atan2f$lsc) refers to atan2f_x.o(i.____hardfp_atan2f$lsc) for ____hardfp_atan2f$lsc
    atan2f_x.o(i.__atan2f$lsc) refers (Special) to iusefp.o(.text) for __I$use$fp
    atan2f_x.o(i.__atan2f$lsc) refers to atan2f_x.o(i.____hardfp_atan2f$lsc) for ____hardfp_atan2f$lsc
    tanf.o(i.__hardfp_tanf) refers (Special) to iusefp.o(.text) for __I$use$fp
    tanf.o(i.__hardfp_tanf) refers to rredf.o(i.__mathlib_rredf2) for __mathlib_rredf2
    tanf.o(i.__hardfp_tanf) refers to fpclassifyf.o(i.__ARM_fpclassifyf) for __ARM_fpclassifyf
    tanf.o(i.__hardfp_tanf) refers to funder.o(i.__mathlib_flt_underflow) for __mathlib_flt_underflow
    tanf.o(i.__hardfp_tanf) refers to errno.o(i.__set_errno) for __set_errno
    tanf.o(i.__hardfp_tanf) refers to funder.o(i.__mathlib_flt_invalid) for __mathlib_flt_invalid
    tanf.o(i.__hardfp_tanf) refers to funder.o(i.__mathlib_flt_infnan) for __mathlib_flt_infnan
    tanf.o(i.__softfp_tanf) refers (Special) to iusefp.o(.text) for __I$use$fp
    tanf.o(i.__softfp_tanf) refers to tanf.o(i.__hardfp_tanf) for __hardfp_tanf
    tanf.o(i.tanf) refers (Special) to iusefp.o(.text) for __I$use$fp
    tanf.o(i.tanf) refers to tanf.o(i.__hardfp_tanf) for __hardfp_tanf
    tanf_x.o(i.____hardfp_tanf$lsc) refers (Special) to iusefp.o(.text) for __I$use$fp
    tanf_x.o(i.____hardfp_tanf$lsc) refers to rredf.o(i.__mathlib_rredf2) for __mathlib_rredf2
    tanf_x.o(i.____hardfp_tanf$lsc) refers to errno.o(i.__set_errno) for __set_errno
    tanf_x.o(i.____hardfp_tanf$lsc) refers to funder.o(i.__mathlib_flt_infnan) for __mathlib_flt_infnan
    tanf_x.o(i.____softfp_tanf$lsc) refers (Special) to iusefp.o(.text) for __I$use$fp
    tanf_x.o(i.____softfp_tanf$lsc) refers to tanf_x.o(i.____hardfp_tanf$lsc) for ____hardfp_tanf$lsc
    tanf_x.o(i.__tanf$lsc) refers (Special) to iusefp.o(.text) for __I$use$fp
    tanf_x.o(i.__tanf$lsc) refers to tanf_x.o(i.____hardfp_tanf$lsc) for ____hardfp_tanf$lsc
    sqrtf_full.o(i.__hardfp_sqrtf) refers (Special) to iusefp.o(.text) for __I$use$fp
    sqrtf_full.o(i.__hardfp_sqrtf) refers to errno.o(i.__set_errno) for __set_errno
    sqrtf_full.o(i.__softfp_sqrtf) refers (Special) to iusefp.o(.text) for __I$use$fp
    sqrtf_full.o(i.__softfp_sqrtf) refers to errno.o(i.__set_errno) for __set_errno
    sqrtf_full.o(i.sqrtf) refers (Special) to iusefp.o(.text) for __I$use$fp
    sqrtf_full.o(i.sqrtf) refers to errno.o(i.__set_errno) for __set_errno
    sqrtf_full_x.o(i.____hardfp_sqrtf$lsc) refers (Special) to iusefp.o(.text) for __I$use$fp
    sqrtf_full_x.o(i.____hardfp_sqrtf$lsc) refers to errno.o(i.__set_errno) for __set_errno
    sqrtf_full_x.o(i.____hardfp_sqrtf$lsc) refers to d2f.o(.text) for __aeabi_d2f
    sqrtf_full_x.o(i.____softfp_sqrtf$lsc) refers (Special) to iusefp.o(.text) for __I$use$fp
    sqrtf_full_x.o(i.____softfp_sqrtf$lsc) refers to errno.o(i.__set_errno) for __set_errno
    sqrtf_full_x.o(i.____softfp_sqrtf$lsc) refers to d2f.o(.text) for __aeabi_d2f
    sqrtf_full_x.o(i.__sqrtf$lsc) refers (Special) to iusefp.o(.text) for __I$use$fp
    sqrtf_full_x.o(i.__sqrtf$lsc) refers to errno.o(i.__set_errno) for __set_errno
    sqrtf_full_x.o(i.__sqrtf$lsc) refers to d2f.o(.text) for __aeabi_d2f
    entry.o(.ARM.Collect$$$$00000000) refers (Special) to entry10a.o(.ARM.Collect$$$$0000000D) for __rt_final_cpp
    entry.o(.ARM.Collect$$$$00000000) refers (Special) to entry11a.o(.ARM.Collect$$$$0000000F) for __rt_final_exit
    entry.o(.ARM.Collect$$$$00000000) refers (Special) to entry7b.o(.ARM.Collect$$$$00000008) for _main_clock
    entry.o(.ARM.Collect$$$$00000000) refers (Special) to entry8b.o(.ARM.Collect$$$$0000000A) for _main_cpp_init
    entry.o(.ARM.Collect$$$$00000000) refers (Special) to entry9a.o(.ARM.Collect$$$$0000000B) for _main_init
    entry.o(.ARM.Collect$$$$00000000) refers (Special) to entry5.o(.ARM.Collect$$$$00000004) for _main_scatterload
    entry.o(.ARM.Collect$$$$00000000) refers (Special) to entry2.o(.ARM.Collect$$$$00000001) for _main_stk
    dadd.o(.text) refers (Special) to iusefp.o(.text) for __I$use$fp
    dadd.o(.text) refers to llshl.o(.text) for __aeabi_llsl
    dadd.o(.text) refers to llsshr.o(.text) for __aeabi_lasr
    dadd.o(.text) refers to depilogue.o(.text) for _double_epilogue
    dmul.o(.text) refers (Special) to iusefp.o(.text) for __I$use$fp
    dmul.o(.text) refers to depilogue.o(.text) for _double_epilogue
    dflti.o(.text) refers (Special) to iusefp.o(.text) for __I$use$fp
    dflti.o(.text) refers to depilogue.o(.text) for _double_epilogue
    dfltui.o(.text) refers (Special) to iusefp.o(.text) for __I$use$fp
    dfltui.o(.text) refers to depilogue.o(.text) for _double_epilogue
    f2d.o(.text) refers (Special) to iusefp.o(.text) for __I$use$fp
    d2f.o(.text) refers (Special) to iusefp.o(.text) for __I$use$fp
    d2f.o(.text) refers to fepilogue.o(.text) for _float_round
    dunder.o(i.__mathlib_dbl_divzero) refers to ddiv.o(.text) for __aeabi_ddiv
    dunder.o(i.__mathlib_dbl_infnan) refers to dadd.o(.text) for __aeabi_dadd
    dunder.o(i.__mathlib_dbl_infnan2) refers to dadd.o(.text) for __aeabi_dadd
    dunder.o(i.__mathlib_dbl_invalid) refers to ddiv.o(.text) for __aeabi_ddiv
    dunder.o(i.__mathlib_dbl_overflow) refers to dmul.o(.text) for __aeabi_dmul
    dunder.o(i.__mathlib_dbl_posinfnan) refers to dmul.o(.text) for __aeabi_dmul
    dunder.o(i.__mathlib_dbl_underflow) refers to dmul.o(.text) for __aeabi_dmul
    fabs.o(i.__hardfp_fabs) refers (Special) to iusefp.o(.text) for __I$use$fp
    fabs.o(i.__softfp_fabs) refers (Special) to iusefp.o(.text) for __I$use$fp
    fabs.o(i.fabs) refers (Special) to iusefp.o(.text) for __I$use$fp
    fpclassify.o(i.__ARM_fpclassify) refers (Special) to iusefp.o(.text) for __I$use$fp
    fpclassifyf.o(i.__ARM_fpclassifyf) refers (Special) to iusefp.o(.text) for __I$use$fp
    poly.o(i.__kernel_poly) refers (Special) to iusefp.o(.text) for __I$use$fp
    poly.o(i.__kernel_poly) refers to dmul.o(.text) for __aeabi_dmul
    poly.o(i.__kernel_poly) refers to dadd.o(.text) for __aeabi_dadd
    rredf.o(i.__mathlib_rredf2) refers (Special) to iusefp.o(.text) for __I$use$fp
    rredf.o(i.__mathlib_rredf2) refers to rredf.o(.constdata) for .constdata
    rredf.o(.constdata) refers (Special) to iusefp.o(.text) for __I$use$fp
    entry2.o(.ARM.Collect$$$$00000001) refers to entry2.o(.ARM.Collect$$$$00002712) for __lit__00000000
    entry2.o(.ARM.Collect$$$$00002712) refers to startup_stm32f40_41xxx.o(STACK) for __initial_sp
    entry2.o(__vectab_stack_and_reset_area) refers to startup_stm32f40_41xxx.o(STACK) for __initial_sp
    entry2.o(__vectab_stack_and_reset_area) refers to entry.o(.ARM.Collect$$$$00000000) for __main
    entry5.o(.ARM.Collect$$$$00000004) refers to init.o(.text) for __scatterload
    entry9a.o(.ARM.Collect$$$$0000000B) refers to main.o(i.main) for main
    entry9b.o(.ARM.Collect$$$$0000000C) refers to main.o(i.main) for main
    errno.o(i.__aeabi_errno_addr) refers to errno.o(.data) for .data
    errno.o(i.__read_errno) refers to errno.o(.data) for .data
    errno.o(i.__set_errno) refers to errno.o(.data) for .data
    depilogue.o(.text) refers to llshl.o(.text) for __aeabi_llsl
    depilogue.o(.text) refers to llushr.o(.text) for __aeabi_llsr
    ddiv.o(.text) refers to depilogue.o(.text) for _double_round
    init.o(.text) refers to entry5.o(.ARM.Collect$$$$00000004) for __main_after_scatterload


==============================================================================

Removing Unused input sections from the image.

    Removing main.o(.rev16_text), (4 bytes).
    Removing main.o(.revsh_text), (4 bytes).
    Removing stm32f4xx_it.o(.rev16_text), (4 bytes).
    Removing stm32f4xx_it.o(.revsh_text), (4 bytes).
    Removing system_stm32f4xx.o(.rev16_text), (4 bytes).
    Removing system_stm32f4xx.o(.revsh_text), (4 bytes).
    Removing system_stm32f4xx.o(i.SystemCoreClockUpdate), (136 bytes).
    Removing make_task.o(.rev16_text), (4 bytes).
    Removing make_task.o(.revsh_text), (4 bytes).
    Removing misc.o(.rev16_text), (4 bytes).
    Removing misc.o(.revsh_text), (4 bytes).
    Removing misc.o(i.NVIC_SetVectorTable), (20 bytes).
    Removing misc.o(i.NVIC_SystemLPConfig), (24 bytes).
    Removing misc.o(i.SysTick_CLKSourceConfig), (22 bytes).
    Removing stm32f4xx_gpio.o(.rev16_text), (4 bytes).
    Removing stm32f4xx_gpio.o(.revsh_text), (4 bytes).
    Removing stm32f4xx_gpio.o(i.GPIO_DeInit), (340 bytes).
    Removing stm32f4xx_gpio.o(i.GPIO_PinLockConfig), (26 bytes).
    Removing stm32f4xx_gpio.o(i.GPIO_ReadInputData), (6 bytes).
    Removing stm32f4xx_gpio.o(i.GPIO_ReadInputDataBit), (14 bytes).
    Removing stm32f4xx_gpio.o(i.GPIO_ReadOutputData), (6 bytes).
    Removing stm32f4xx_gpio.o(i.GPIO_ReadOutputDataBit), (14 bytes).
    Removing stm32f4xx_gpio.o(i.GPIO_StructInit), (18 bytes).
    Removing stm32f4xx_gpio.o(i.GPIO_ToggleBits), (8 bytes).
    Removing stm32f4xx_gpio.o(i.GPIO_Write), (4 bytes).
    Removing stm32f4xx_gpio.o(i.GPIO_WriteBit), (10 bytes).
    Removing stm32f4xx_rcc.o(.rev16_text), (4 bytes).
    Removing stm32f4xx_rcc.o(.revsh_text), (4 bytes).
    Removing stm32f4xx_rcc.o(i.RCC_AHB1PeriphClockLPModeCmd), (24 bytes).
    Removing stm32f4xx_rcc.o(i.RCC_AHB1PeriphResetCmd), (24 bytes).
    Removing stm32f4xx_rcc.o(i.RCC_AHB2PeriphClockCmd), (24 bytes).
    Removing stm32f4xx_rcc.o(i.RCC_AHB2PeriphClockLPModeCmd), (24 bytes).
    Removing stm32f4xx_rcc.o(i.RCC_AHB2PeriphResetCmd), (24 bytes).
    Removing stm32f4xx_rcc.o(i.RCC_AHB3PeriphClockCmd), (24 bytes).
    Removing stm32f4xx_rcc.o(i.RCC_AHB3PeriphClockLPModeCmd), (24 bytes).
    Removing stm32f4xx_rcc.o(i.RCC_AHB3PeriphResetCmd), (24 bytes).
    Removing stm32f4xx_rcc.o(i.RCC_APB1PeriphClockLPModeCmd), (24 bytes).
    Removing stm32f4xx_rcc.o(i.RCC_APB1PeriphResetCmd), (24 bytes).
    Removing stm32f4xx_rcc.o(i.RCC_APB2PeriphClockLPModeCmd), (24 bytes).
    Removing stm32f4xx_rcc.o(i.RCC_APB2PeriphResetCmd), (24 bytes).
    Removing stm32f4xx_rcc.o(i.RCC_AdjustHSICalibrationValue), (20 bytes).
    Removing stm32f4xx_rcc.o(i.RCC_BackupResetCmd), (12 bytes).
    Removing stm32f4xx_rcc.o(i.RCC_ClearFlag), (16 bytes).
    Removing stm32f4xx_rcc.o(i.RCC_ClearITPendingBit), (12 bytes).
    Removing stm32f4xx_rcc.o(i.RCC_ClockSecuritySystemCmd), (12 bytes).
    Removing stm32f4xx_rcc.o(i.RCC_DeInit), (92 bytes).
    Removing stm32f4xx_rcc.o(i.RCC_GetFlagStatus), (56 bytes).
    Removing stm32f4xx_rcc.o(i.RCC_GetITStatus), (20 bytes).
    Removing stm32f4xx_rcc.o(i.RCC_GetSYSCLKSource), (16 bytes).
    Removing stm32f4xx_rcc.o(i.RCC_HCLKConfig), (20 bytes).
    Removing stm32f4xx_rcc.o(i.RCC_HSEConfig), (16 bytes).
    Removing stm32f4xx_rcc.o(i.RCC_HSICmd), (12 bytes).
    Removing stm32f4xx_rcc.o(i.RCC_I2SCLKConfig), (12 bytes).
    Removing stm32f4xx_rcc.o(i.RCC_ITConfig), (24 bytes).
    Removing stm32f4xx_rcc.o(i.RCC_LSEConfig), (28 bytes).
    Removing stm32f4xx_rcc.o(i.RCC_LSEModeConfig), (24 bytes).
    Removing stm32f4xx_rcc.o(i.RCC_LSICmd), (12 bytes).
    Removing stm32f4xx_rcc.o(i.RCC_LTDCCLKDivConfig), (20 bytes).
    Removing stm32f4xx_rcc.o(i.RCC_MCO1Config), (20 bytes).
    Removing stm32f4xx_rcc.o(i.RCC_MCO2Config), (20 bytes).
    Removing stm32f4xx_rcc.o(i.RCC_PCLK1Config), (20 bytes).
    Removing stm32f4xx_rcc.o(i.RCC_PCLK2Config), (20 bytes).
    Removing stm32f4xx_rcc.o(i.RCC_PLLCmd), (12 bytes).
    Removing stm32f4xx_rcc.o(i.RCC_PLLConfig), (40 bytes).
    Removing stm32f4xx_rcc.o(i.RCC_PLLI2SCmd), (12 bytes).
    Removing stm32f4xx_rcc.o(i.RCC_PLLI2SConfig), (16 bytes).
    Removing stm32f4xx_rcc.o(i.RCC_PLLSAICmd), (12 bytes).
    Removing stm32f4xx_rcc.o(i.RCC_PLLSAIConfig), (20 bytes).
    Removing stm32f4xx_rcc.o(i.RCC_RTCCLKCmd), (12 bytes).
    Removing stm32f4xx_rcc.o(i.RCC_RTCCLKConfig), (52 bytes).
    Removing stm32f4xx_rcc.o(i.RCC_SAIBlockACLKConfig), (20 bytes).
    Removing stm32f4xx_rcc.o(i.RCC_SAIBlockBCLKConfig), (20 bytes).
    Removing stm32f4xx_rcc.o(i.RCC_SAIPLLI2SClkDivConfig), (20 bytes).
    Removing stm32f4xx_rcc.o(i.RCC_SAIPLLSAIClkDivConfig), (28 bytes).
    Removing stm32f4xx_rcc.o(i.RCC_SYSCLKConfig), (20 bytes).
    Removing stm32f4xx_rcc.o(i.RCC_TIMCLKPresConfig), (12 bytes).
    Removing stm32f4xx_rcc.o(i.RCC_WaitForHSEStartUp), (56 bytes).
    Removing stm32f4xx_syscfg.o(.rev16_text), (4 bytes).
    Removing stm32f4xx_syscfg.o(.revsh_text), (4 bytes).
    Removing stm32f4xx_syscfg.o(i.SYSCFG_CompensationCellCmd), (12 bytes).
    Removing stm32f4xx_syscfg.o(i.SYSCFG_DeInit), (24 bytes).
    Removing stm32f4xx_syscfg.o(i.SYSCFG_ETH_MediaInterfaceConfig), (12 bytes).
    Removing stm32f4xx_syscfg.o(i.SYSCFG_EXTILineConfig), (46 bytes).
    Removing stm32f4xx_syscfg.o(i.SYSCFG_GetCompensationCellStatus), (20 bytes).
    Removing stm32f4xx_syscfg.o(i.SYSCFG_MemoryRemapConfig), (12 bytes).
    Removing stm32f4xx_syscfg.o(i.SYSCFG_MemorySwappingBank), (12 bytes).
    Removing stm32f4xx_usart.o(.rev16_text), (4 bytes).
    Removing stm32f4xx_usart.o(.revsh_text), (4 bytes).
    Removing stm32f4xx_usart.o(i.USART_ClearFlag), (6 bytes).
    Removing stm32f4xx_usart.o(i.USART_ClearITPendingBit), (14 bytes).
    Removing stm32f4xx_usart.o(i.USART_ClockInit), (34 bytes).
    Removing stm32f4xx_usart.o(i.USART_ClockStructInit), (12 bytes).
    Removing stm32f4xx_usart.o(i.USART_DeInit), (256 bytes).
    Removing stm32f4xx_usart.o(i.USART_GetFlagStatus), (14 bytes).
    Removing stm32f4xx_usart.o(i.USART_GetITStatus), (76 bytes).
    Removing stm32f4xx_usart.o(i.USART_HalfDuplexCmd), (18 bytes).
    Removing stm32f4xx_usart.o(i.USART_IrDACmd), (18 bytes).
    Removing stm32f4xx_usart.o(i.USART_IrDAConfig), (16 bytes).
    Removing stm32f4xx_usart.o(i.USART_LINBreakDetectLengthConfig), (16 bytes).
    Removing stm32f4xx_usart.o(i.USART_LINCmd), (18 bytes).
    Removing stm32f4xx_usart.o(i.USART_OneBitMethodCmd), (18 bytes).
    Removing stm32f4xx_usart.o(i.USART_OverSampling8Cmd), (18 bytes).
    Removing stm32f4xx_usart.o(i.USART_ReceiveData), (8 bytes).
    Removing stm32f4xx_usart.o(i.USART_ReceiverWakeUpCmd), (18 bytes).
    Removing stm32f4xx_usart.o(i.USART_SendBreak), (10 bytes).
    Removing stm32f4xx_usart.o(i.USART_SendData), (8 bytes).
    Removing stm32f4xx_usart.o(i.USART_SetAddress), (16 bytes).
    Removing stm32f4xx_usart.o(i.USART_SetGuardTime), (16 bytes).
    Removing stm32f4xx_usart.o(i.USART_SetPrescaler), (16 bytes).
    Removing stm32f4xx_usart.o(i.USART_SmartCardCmd), (18 bytes).
    Removing stm32f4xx_usart.o(i.USART_SmartCardNACKCmd), (18 bytes).
    Removing stm32f4xx_usart.o(i.USART_StructInit), (22 bytes).
    Removing stm32f4xx_usart.o(i.USART_WakeUpConfig), (16 bytes).
    Removing stm32f4xx_exti.o(.rev16_text), (4 bytes).
    Removing stm32f4xx_exti.o(.revsh_text), (4 bytes).
    Removing stm32f4xx_exti.o(i.EXTI_ClearFlag), (12 bytes).
    Removing stm32f4xx_exti.o(i.EXTI_ClearITPendingBit), (12 bytes).
    Removing stm32f4xx_exti.o(i.EXTI_DeInit), (40 bytes).
    Removing stm32f4xx_exti.o(i.EXTI_GenerateSWInterrupt), (16 bytes).
    Removing stm32f4xx_exti.o(i.EXTI_GetFlagStatus), (20 bytes).
    Removing stm32f4xx_exti.o(i.EXTI_GetITStatus), (20 bytes).
    Removing stm32f4xx_exti.o(i.EXTI_Init), (144 bytes).
    Removing stm32f4xx_exti.o(i.EXTI_StructInit), (14 bytes).
    Removing stm32f4xx_tim.o(.rev16_text), (4 bytes).
    Removing stm32f4xx_tim.o(.revsh_text), (4 bytes).
    Removing stm32f4xx_tim.o(i.TIM_ARRPreloadConfig), (18 bytes).
    Removing stm32f4xx_tim.o(i.TIM_BDTRConfig), (36 bytes).
    Removing stm32f4xx_tim.o(i.TIM_BDTRStructInit), (18 bytes).
    Removing stm32f4xx_tim.o(i.TIM_CCPreloadControl), (18 bytes).
    Removing stm32f4xx_tim.o(i.TIM_CCxCmd), (26 bytes).
    Removing stm32f4xx_tim.o(i.TIM_CCxNCmd), (26 bytes).
    Removing stm32f4xx_tim.o(i.TIM_ClearFlag), (6 bytes).
    Removing stm32f4xx_tim.o(i.TIM_ClearOC1Ref), (12 bytes).
    Removing stm32f4xx_tim.o(i.TIM_ClearOC2Ref), (20 bytes).
    Removing stm32f4xx_tim.o(i.TIM_ClearOC3Ref), (12 bytes).
    Removing stm32f4xx_tim.o(i.TIM_ClearOC4Ref), (20 bytes).
    Removing stm32f4xx_tim.o(i.TIM_CounterModeConfig), (12 bytes).
    Removing stm32f4xx_tim.o(i.TIM_CtrlPWMOutputs), (22 bytes).
    Removing stm32f4xx_tim.o(i.TIM_DMACmd), (16 bytes).
    Removing stm32f4xx_tim.o(i.TIM_DMAConfig), (8 bytes).
    Removing stm32f4xx_tim.o(i.TIM_DeInit), (436 bytes).
    Removing stm32f4xx_tim.o(i.TIM_ETRClockMode1Config), (40 bytes).
    Removing stm32f4xx_tim.o(i.TIM_ETRClockMode2Config), (40 bytes).
    Removing stm32f4xx_tim.o(i.TIM_ETRConfig), (32 bytes).
    Removing stm32f4xx_tim.o(i.TIM_EncoderInterfaceConfig), (60 bytes).
    Removing stm32f4xx_tim.o(i.TIM_ForcedOC1Config), (12 bytes).
    Removing stm32f4xx_tim.o(i.TIM_ForcedOC2Config), (20 bytes).
    Removing stm32f4xx_tim.o(i.TIM_ForcedOC3Config), (12 bytes).
    Removing stm32f4xx_tim.o(i.TIM_ForcedOC4Config), (20 bytes).
    Removing stm32f4xx_tim.o(i.TIM_GenerateEvent), (4 bytes).
    Removing stm32f4xx_tim.o(i.TIM_GetCapture2), (4 bytes).
    Removing stm32f4xx_tim.o(i.TIM_GetCapture3), (4 bytes).
    Removing stm32f4xx_tim.o(i.TIM_GetCapture4), (4 bytes).
    Removing stm32f4xx_tim.o(i.TIM_GetCounter), (4 bytes).
    Removing stm32f4xx_tim.o(i.TIM_GetFlagStatus), (14 bytes).
    Removing stm32f4xx_tim.o(i.TIM_GetPrescaler), (4 bytes).
    Removing stm32f4xx_tim.o(i.TIM_ICInit), (294 bytes).
    Removing stm32f4xx_tim.o(i.TIM_ICStructInit), (16 bytes).
    Removing stm32f4xx_tim.o(i.TIM_ITConfig), (16 bytes).
    Removing stm32f4xx_tim.o(i.TIM_ITRxExternalClockConfig), (20 bytes).
    Removing stm32f4xx_tim.o(i.TIM_InternalClockConfig), (10 bytes).
    Removing stm32f4xx_tim.o(i.TIM_OC1FastConfig), (12 bytes).
    Removing stm32f4xx_tim.o(i.TIM_OC1Init), (104 bytes).
    Removing stm32f4xx_tim.o(i.TIM_OC1NPolarityConfig), (12 bytes).
    Removing stm32f4xx_tim.o(i.TIM_OC1PreloadConfig), (12 bytes).
    Removing stm32f4xx_tim.o(i.TIM_OC2FastConfig), (20 bytes).
    Removing stm32f4xx_tim.o(i.TIM_OC2Init), (138 bytes).
    Removing stm32f4xx_tim.o(i.TIM_OC2NPolarityConfig), (20 bytes).
    Removing stm32f4xx_tim.o(i.TIM_OC2PolarityConfig), (20 bytes).
    Removing stm32f4xx_tim.o(i.TIM_OC2PreloadConfig), (20 bytes).
    Removing stm32f4xx_tim.o(i.TIM_OC3FastConfig), (12 bytes).
    Removing stm32f4xx_tim.o(i.TIM_OC3Init), (140 bytes).
    Removing stm32f4xx_tim.o(i.TIM_OC3NPolarityConfig), (20 bytes).
    Removing stm32f4xx_tim.o(i.TIM_OC3PolarityConfig), (20 bytes).
    Removing stm32f4xx_tim.o(i.TIM_OC3PreloadConfig), (12 bytes).
    Removing stm32f4xx_tim.o(i.TIM_OC4FastConfig), (20 bytes).
    Removing stm32f4xx_tim.o(i.TIM_OC4Init), (102 bytes).
    Removing stm32f4xx_tim.o(i.TIM_OC4PolarityConfig), (20 bytes).
    Removing stm32f4xx_tim.o(i.TIM_OC4PreloadConfig), (20 bytes).
    Removing stm32f4xx_tim.o(i.TIM_OCStructInit), (20 bytes).
    Removing stm32f4xx_tim.o(i.TIM_PWMIConfig), (300 bytes).
    Removing stm32f4xx_tim.o(i.TIM_PrescalerConfig), (6 bytes).
    Removing stm32f4xx_tim.o(i.TIM_RemapConfig), (6 bytes).
    Removing stm32f4xx_tim.o(i.TIM_SelectCCDMA), (18 bytes).
    Removing stm32f4xx_tim.o(i.TIM_SelectCOM), (18 bytes).
    Removing stm32f4xx_tim.o(i.TIM_SelectHallSensor), (18 bytes).
    Removing stm32f4xx_tim.o(i.TIM_SelectInputTrigger), (12 bytes).
    Removing stm32f4xx_tim.o(i.TIM_SelectMasterSlaveMode), (16 bytes).
    Removing stm32f4xx_tim.o(i.TIM_SelectOCxM), (102 bytes).
    Removing stm32f4xx_tim.o(i.TIM_SelectOnePulseMode), (16 bytes).
    Removing stm32f4xx_tim.o(i.TIM_SelectOutputTrigger), (16 bytes).
    Removing stm32f4xx_tim.o(i.TIM_SelectSlaveMode), (16 bytes).
    Removing stm32f4xx_tim.o(i.TIM_SetAutoreload), (4 bytes).
    Removing stm32f4xx_tim.o(i.TIM_SetClockDivision), (16 bytes).
    Removing stm32f4xx_tim.o(i.TIM_SetCompare2), (4 bytes).
    Removing stm32f4xx_tim.o(i.TIM_SetCompare4), (4 bytes).
    Removing stm32f4xx_tim.o(i.TIM_SetIC1Prescaler), (16 bytes).
    Removing stm32f4xx_tim.o(i.TIM_SetIC2Prescaler), (24 bytes).
    Removing stm32f4xx_tim.o(i.TIM_SetIC3Prescaler), (16 bytes).
    Removing stm32f4xx_tim.o(i.TIM_SetIC4Prescaler), (24 bytes).
    Removing stm32f4xx_tim.o(i.TIM_TIxExternalClockConfig), (120 bytes).
    Removing stm32f4xx_tim.o(i.TIM_TimeBaseInit), (128 bytes).
    Removing stm32f4xx_tim.o(i.TIM_TimeBaseStructInit), (18 bytes).
    Removing stm32f4xx_tim.o(i.TIM_UpdateDisableConfig), (18 bytes).
    Removing stm32f4xx_tim.o(i.TIM_UpdateRequestConfig), (18 bytes).
    Removing stm32f4xx_adc.o(.rev16_text), (4 bytes).
    Removing stm32f4xx_adc.o(.revsh_text), (4 bytes).
    Removing stm32f4xx_adc.o(i.ADC_AnalogWatchdogCmd), (16 bytes).
    Removing stm32f4xx_adc.o(i.ADC_AnalogWatchdogSingleChannelConfig), (12 bytes).
    Removing stm32f4xx_adc.o(i.ADC_AnalogWatchdogThresholdsConfig), (6 bytes).
    Removing stm32f4xx_adc.o(i.ADC_AutoInjectedConvCmd), (18 bytes).
    Removing stm32f4xx_adc.o(i.ADC_ClearFlag), (6 bytes).
    Removing stm32f4xx_adc.o(i.ADC_ClearITPendingBit), (8 bytes).
    Removing stm32f4xx_adc.o(i.ADC_Cmd), (18 bytes).
    Removing stm32f4xx_adc.o(i.ADC_CommonInit), (44 bytes).
    Removing stm32f4xx_adc.o(i.ADC_CommonStructInit), (12 bytes).
    Removing stm32f4xx_adc.o(i.ADC_ContinuousModeCmd), (18 bytes).
    Removing stm32f4xx_adc.o(i.ADC_DMACmd), (18 bytes).
    Removing stm32f4xx_adc.o(i.ADC_DMARequestAfterLastTransferCmd), (18 bytes).
    Removing stm32f4xx_adc.o(i.ADC_DeInit), (24 bytes).
    Removing stm32f4xx_adc.o(i.ADC_DiscModeChannelCountConfig), (16 bytes).
    Removing stm32f4xx_adc.o(i.ADC_DiscModeCmd), (18 bytes).
    Removing stm32f4xx_adc.o(i.ADC_EOCOnEachRegularChannelCmd), (18 bytes).
    Removing stm32f4xx_adc.o(i.ADC_ExternalTrigInjectedConvConfig), (12 bytes).
    Removing stm32f4xx_adc.o(i.ADC_ExternalTrigInjectedConvEdgeConfig), (12 bytes).
    Removing stm32f4xx_adc.o(i.ADC_GetConversionValue), (6 bytes).
    Removing stm32f4xx_adc.o(i.ADC_GetFlagStatus), (14 bytes).
    Removing stm32f4xx_adc.o(i.ADC_GetITStatus), (36 bytes).
    Removing stm32f4xx_adc.o(i.ADC_GetInjectedConversionValue), (16 bytes).
    Removing stm32f4xx_adc.o(i.ADC_GetMultiModeConversionValue), (12 bytes).
    Removing stm32f4xx_adc.o(i.ADC_GetSoftwareStartConvStatus), (16 bytes).
    Removing stm32f4xx_adc.o(i.ADC_GetSoftwareStartInjectedConvCmdStatus), (16 bytes).
    Removing stm32f4xx_adc.o(i.ADC_ITConfig), (22 bytes).
    Removing stm32f4xx_adc.o(i.ADC_Init), (84 bytes).
    Removing stm32f4xx_adc.o(i.ADC_InjectedChannelConfig), (96 bytes).
    Removing stm32f4xx_adc.o(i.ADC_InjectedDiscModeCmd), (18 bytes).
    Removing stm32f4xx_adc.o(i.ADC_InjectedSequencerLengthConfig), (16 bytes).
    Removing stm32f4xx_adc.o(i.ADC_MultiModeDMARequestAfterLastTransferCmd), (28 bytes).
    Removing stm32f4xx_adc.o(i.ADC_RegularChannelConfig), (146 bytes).
    Removing stm32f4xx_adc.o(i.ADC_SetInjectedOffset), (12 bytes).
    Removing stm32f4xx_adc.o(i.ADC_SoftwareStartConv), (10 bytes).
    Removing stm32f4xx_adc.o(i.ADC_SoftwareStartInjectedConv), (10 bytes).
    Removing stm32f4xx_adc.o(i.ADC_StructInit), (20 bytes).
    Removing stm32f4xx_adc.o(i.ADC_TempSensorVrefintCmd), (28 bytes).
    Removing stm32f4xx_adc.o(i.ADC_VBATCmd), (28 bytes).
    Removing stm32f4xx_dma.o(.rev16_text), (4 bytes).
    Removing stm32f4xx_dma.o(.revsh_text), (4 bytes).
    Removing stm32f4xx_dma.o(i.DMA_ClearFlag), (44 bytes).
    Removing stm32f4xx_dma.o(i.DMA_ClearITPendingBit), (44 bytes).
    Removing stm32f4xx_dma.o(i.DMA_Cmd), (18 bytes).
    Removing stm32f4xx_dma.o(i.DMA_DeInit), (388 bytes).
    Removing stm32f4xx_dma.o(i.DMA_DoubleBufferModeCmd), (18 bytes).
    Removing stm32f4xx_dma.o(i.DMA_DoubleBufferModeConfig), (20 bytes).
    Removing stm32f4xx_dma.o(i.DMA_FlowControllerConfig), (18 bytes).
    Removing stm32f4xx_dma.o(i.DMA_GetCmdStatus), (16 bytes).
    Removing stm32f4xx_dma.o(i.DMA_GetCurrDataCounter), (6 bytes).
    Removing stm32f4xx_dma.o(i.DMA_GetCurrentMemoryTarget), (16 bytes).
    Removing stm32f4xx_dma.o(i.DMA_GetFIFOStatus), (8 bytes).
    Removing stm32f4xx_dma.o(i.DMA_GetFlagStatus), (52 bytes).
    Removing stm32f4xx_dma.o(i.DMA_GetITStatus), (96 bytes).
    Removing stm32f4xx_dma.o(i.DMA_ITConfig), (64 bytes).
    Removing stm32f4xx_dma.o(i.DMA_MemoryTargetConfig), (10 bytes).
    Removing stm32f4xx_dma.o(i.DMA_PeriphIncOffsetSizeConfig), (18 bytes).
    Removing stm32f4xx_dma.o(i.DMA_SetCurrDataCounter), (4 bytes).
    Removing stm32f4xx_dma.o(i.DMA_StructInit), (34 bytes).
    Removing stm32f4xx_spi.o(.rev16_text), (4 bytes).
    Removing stm32f4xx_spi.o(.revsh_text), (4 bytes).
    Removing stm32f4xx_spi.o(i.I2S_Cmd), (18 bytes).
    Removing stm32f4xx_spi.o(i.I2S_FullDuplexConfig), (70 bytes).
    Removing stm32f4xx_spi.o(i.I2S_Init), (260 bytes).
    Removing stm32f4xx_spi.o(i.I2S_StructInit), (18 bytes).
    Removing stm32f4xx_spi.o(i.SPI_BiDirectionalLineConfig), (20 bytes).
    Removing stm32f4xx_spi.o(i.SPI_CalculateCRC), (18 bytes).
    Removing stm32f4xx_spi.o(i.SPI_Cmd), (18 bytes).
    Removing stm32f4xx_spi.o(i.SPI_DataSizeConfig), (16 bytes).
    Removing stm32f4xx_spi.o(i.SPI_GetCRC), (10 bytes).
    Removing stm32f4xx_spi.o(i.SPI_GetCRCPolynomial), (4 bytes).
    Removing stm32f4xx_spi.o(i.SPI_I2S_ClearFlag), (6 bytes).
    Removing stm32f4xx_spi.o(i.SPI_I2S_ClearITPendingBit), (16 bytes).
    Removing stm32f4xx_spi.o(i.SPI_I2S_DMACmd), (16 bytes).
    Removing stm32f4xx_spi.o(i.SPI_I2S_DeInit), (196 bytes).
    Removing stm32f4xx_spi.o(i.SPI_I2S_GetITStatus), (46 bytes).
    Removing stm32f4xx_spi.o(i.SPI_I2S_ITConfig), (26 bytes).
    Removing stm32f4xx_spi.o(i.SPI_Init), (84 bytes).
    Removing stm32f4xx_spi.o(i.SPI_NSSInternalSoftwareConfig), (22 bytes).
    Removing stm32f4xx_spi.o(i.SPI_SSOutputCmd), (18 bytes).
    Removing stm32f4xx_spi.o(i.SPI_StructInit), (24 bytes).
    Removing stm32f4xx_spi.o(i.SPI_TIModeCmd), (18 bytes).
    Removing stm32f4xx_spi.o(i.SPI_TransmitCRC), (10 bytes).
    Removing stm32f4xx_flash.o(.rev16_text), (4 bytes).
    Removing stm32f4xx_flash.o(.revsh_text), (4 bytes).
    Removing stm32f4xx_flash.o(i.FLASH_ClearFlag), (12 bytes).
    Removing stm32f4xx_flash.o(i.FLASH_DataCacheCmd), (24 bytes).
    Removing stm32f4xx_flash.o(i.FLASH_DataCacheReset), (16 bytes).
    Removing stm32f4xx_flash.o(i.FLASH_EraseAllBank1Sectors), (92 bytes).
    Removing stm32f4xx_flash.o(i.FLASH_EraseAllBank2Sectors), (92 bytes).
    Removing stm32f4xx_flash.o(i.FLASH_EraseAllSectors), (92 bytes).
    Removing stm32f4xx_flash.o(i.FLASH_EraseSector), (108 bytes).
    Removing stm32f4xx_flash.o(i.FLASH_GetFlagStatus), (20 bytes).
    Removing stm32f4xx_flash.o(i.FLASH_GetStatus), (68 bytes).
    Removing stm32f4xx_flash.o(i.FLASH_ITConfig), (24 bytes).
    Removing stm32f4xx_flash.o(i.FLASH_InstructionCacheCmd), (24 bytes).
    Removing stm32f4xx_flash.o(i.FLASH_InstructionCacheReset), (16 bytes).
    Removing stm32f4xx_flash.o(i.FLASH_Lock), (16 bytes).
    Removing stm32f4xx_flash.o(i.FLASH_OB_BORConfig), (24 bytes).
    Removing stm32f4xx_flash.o(i.FLASH_OB_BootConfig), (24 bytes).
    Removing stm32f4xx_flash.o(i.FLASH_OB_GetBOR), (16 bytes).
    Removing stm32f4xx_flash.o(i.FLASH_OB_GetPCROP), (12 bytes).
    Removing stm32f4xx_flash.o(i.FLASH_OB_GetPCROP1), (12 bytes).
    Removing stm32f4xx_flash.o(i.FLASH_OB_GetRDP), (20 bytes).
    Removing stm32f4xx_flash.o(i.FLASH_OB_GetUser), (16 bytes).
    Removing stm32f4xx_flash.o(i.FLASH_OB_GetWRP), (12 bytes).
    Removing stm32f4xx_flash.o(i.FLASH_OB_GetWRP1), (12 bytes).
    Removing stm32f4xx_flash.o(i.FLASH_OB_Launch), (20 bytes).
    Removing stm32f4xx_flash.o(i.FLASH_OB_Lock), (16 bytes).
    Removing stm32f4xx_flash.o(i.FLASH_OB_PCROP1Config), (36 bytes).
    Removing stm32f4xx_flash.o(i.FLASH_OB_PCROPConfig), (36 bytes).
    Removing stm32f4xx_flash.o(i.FLASH_OB_PCROPSelectionConfig), (20 bytes).
    Removing stm32f4xx_flash.o(i.FLASH_OB_RDPConfig), (24 bytes).
    Removing stm32f4xx_flash.o(i.FLASH_OB_Unlock), (40 bytes).
    Removing stm32f4xx_flash.o(i.FLASH_OB_UserConfig), (40 bytes).
    Removing stm32f4xx_flash.o(i.FLASH_OB_WRP1Config), (36 bytes).
    Removing stm32f4xx_flash.o(i.FLASH_OB_WRPConfig), (36 bytes).
    Removing stm32f4xx_flash.o(i.FLASH_PrefetchBufferCmd), (24 bytes).
    Removing stm32f4xx_flash.o(i.FLASH_ProgramByte), (60 bytes).
    Removing stm32f4xx_flash.o(i.FLASH_ProgramDoubleWord), (64 bytes).
    Removing stm32f4xx_flash.o(i.FLASH_ProgramHalfWord), (64 bytes).
    Removing stm32f4xx_flash.o(i.FLASH_ProgramWord), (64 bytes).
    Removing stm32f4xx_flash.o(i.FLASH_SetLatency), (12 bytes).
    Removing stm32f4xx_flash.o(i.FLASH_Unlock), (40 bytes).
    Removing stm32f4xx_flash.o(i.FLASH_WaitForLastOperation), (168 bytes).
    Removing stm32f4xx_flash_ramfunc.o(.rev16_text), (4 bytes).
    Removing stm32f4xx_flash_ramfunc.o(.revsh_text), (4 bytes).
    Removing stm32f4xx_flash_ramfunc.o(i.FLASH_FlashInterfaceCmd), (24 bytes).
    Removing stm32f4xx_flash_ramfunc.o(i.FLASH_FlashSleepModeCmd), (24 bytes).
    Removing stm32f4xx_can.o(.rev16_text), (4 bytes).
    Removing stm32f4xx_can.o(.revsh_text), (4 bytes).
    Removing stm32f4xx_can.o(i.CAN_CancelTransmit), (40 bytes).
    Removing stm32f4xx_can.o(i.CAN_ClearFlag), (52 bytes).
    Removing stm32f4xx_can.o(i.CAN_DBGFreeze), (18 bytes).
    Removing stm32f4xx_can.o(i.CAN_DeInit), (58 bytes).
    Removing stm32f4xx_can.o(i.CAN_FIFORelease), (22 bytes).
    Removing stm32f4xx_can.o(i.CAN_GetFlagStatus), (82 bytes).
    Removing stm32f4xx_can.o(i.CAN_GetLSBTransmitErrorCounter), (8 bytes).
    Removing stm32f4xx_can.o(i.CAN_GetLastErrorCode), (10 bytes).
    Removing stm32f4xx_can.o(i.CAN_GetReceiveErrorCounter), (6 bytes).
    Removing stm32f4xx_can.o(i.CAN_MessagePending), (26 bytes).
    Removing stm32f4xx_can.o(i.CAN_OperatingModeRequest), (138 bytes).
    Removing stm32f4xx_can.o(i.CAN_SlaveStartBank), (44 bytes).
    Removing stm32f4xx_can.o(i.CAN_Sleep), (30 bytes).
    Removing stm32f4xx_can.o(i.CAN_StructInit), (32 bytes).
    Removing stm32f4xx_can.o(i.CAN_TTComModeCmd), (90 bytes).
    Removing stm32f4xx_can.o(i.CAN_WakeUp), (42 bytes).
    Removing stm32f4xx_i2c.o(.rev16_text), (4 bytes).
    Removing stm32f4xx_i2c.o(.revsh_text), (4 bytes).
    Removing stm32f4xx_i2c.o(i.I2C_ARPCmd), (18 bytes).
    Removing stm32f4xx_i2c.o(i.I2C_AcknowledgeConfig), (18 bytes).
    Removing stm32f4xx_i2c.o(i.I2C_AnalogFilterCmd), (18 bytes).
    Removing stm32f4xx_i2c.o(i.I2C_CalculatePEC), (18 bytes).
    Removing stm32f4xx_i2c.o(i.I2C_CheckEvent), (26 bytes).
    Removing stm32f4xx_i2c.o(i.I2C_ClearFlag), (6 bytes).
    Removing stm32f4xx_i2c.o(i.I2C_ClearITPendingBit), (6 bytes).
    Removing stm32f4xx_i2c.o(i.I2C_Cmd), (18 bytes).
    Removing stm32f4xx_i2c.o(i.I2C_DMACmd), (18 bytes).
    Removing stm32f4xx_i2c.o(i.I2C_DMALastTransferCmd), (18 bytes).
    Removing stm32f4xx_i2c.o(i.I2C_DeInit), (100 bytes).
    Removing stm32f4xx_i2c.o(i.I2C_DigitalFilterConfig), (16 bytes).
    Removing stm32f4xx_i2c.o(i.I2C_DualAddressCmd), (18 bytes).
    Removing stm32f4xx_i2c.o(i.I2C_FastModeDutyCycleConfig), (20 bytes).
    Removing stm32f4xx_i2c.o(i.I2C_GeneralCallCmd), (18 bytes).
    Removing stm32f4xx_i2c.o(i.I2C_GenerateSTART), (18 bytes).
    Removing stm32f4xx_i2c.o(i.I2C_GenerateSTOP), (18 bytes).
    Removing stm32f4xx_i2c.o(i.I2C_GetFlagStatus), (42 bytes).
    Removing stm32f4xx_i2c.o(i.I2C_GetITStatus), (34 bytes).
    Removing stm32f4xx_i2c.o(i.I2C_GetLastEvent), (14 bytes).
    Removing stm32f4xx_i2c.o(i.I2C_GetPEC), (6 bytes).
    Removing stm32f4xx_i2c.o(i.I2C_ITConfig), (16 bytes).
    Removing stm32f4xx_i2c.o(i.I2C_Init), (196 bytes).
    Removing stm32f4xx_i2c.o(i.I2C_NACKPositionConfig), (20 bytes).
    Removing stm32f4xx_i2c.o(i.I2C_OwnAddress2Config), (16 bytes).
    Removing stm32f4xx_i2c.o(i.I2C_PECPositionConfig), (20 bytes).
    Removing stm32f4xx_i2c.o(i.I2C_ReadRegister), (12 bytes).
    Removing stm32f4xx_i2c.o(i.I2C_ReceiveData), (6 bytes).
    Removing stm32f4xx_i2c.o(i.I2C_SMBusAlertConfig), (20 bytes).
    Removing stm32f4xx_i2c.o(i.I2C_Send7bitAddress), (16 bytes).
    Removing stm32f4xx_i2c.o(i.I2C_SendData), (4 bytes).
    Removing stm32f4xx_i2c.o(i.I2C_SoftwareResetCmd), (18 bytes).
    Removing stm32f4xx_i2c.o(i.I2C_StretchClockCmd), (18 bytes).
    Removing stm32f4xx_i2c.o(i.I2C_StructInit), (28 bytes).
    Removing stm32f4xx_i2c.o(i.I2C_TransmitPEC), (18 bytes).
    Removing startup_stm32f40_41xxx.o(HEAP), (512 bytes).
    Removing led_blink_task.o(.rev16_text), (4 bytes).
    Removing led_blink_task.o(.revsh_text), (4 bytes).
    Removing buzzer_task.o(.rev16_text), (4 bytes).
    Removing buzzer_task.o(.revsh_text), (4 bytes).
    Removing chassis_task.o(.rev16_text), (4 bytes).
    Removing chassis_task.o(.revsh_text), (4 bytes).
    Removing remote_task.o(.rev16_text), (4 bytes).
    Removing remote_task.o(.revsh_text), (4 bytes).
    Removing chassis_behave.o(.rev16_text), (4 bytes).
    Removing chassis_behave.o(.revsh_text), (4 bytes).
    Removing chassis_behave.o(i.chassis_follow_chassis_solve_D), (436 bytes).
    Removing gyro_task.o(.rev16_text), (4 bytes).
    Removing gyro_task.o(.revsh_text), (4 bytes).
    Removing gyro_task.o(.constdata), (12 bytes).
    Removing gyro_task.o(.data), (4 bytes).
    Removing gyro_task.o(.data), (4 bytes).
    Removing gyro_task.o(.data), (1 bytes).
    Removing gyro_task.o(.data), (1 bytes).
    Removing gyro_task.o(.data), (1 bytes).
    Removing gyro_task.o(.data), (1 bytes).
    Removing gyro_task.o(.data), (1 bytes).
    Removing bsp_led.o(.rev16_text), (4 bytes).
    Removing bsp_led.o(.revsh_text), (4 bytes).
    Removing bsp_delay.o(.rev16_text), (4 bytes).
    Removing bsp_delay.o(.revsh_text), (4 bytes).
    Removing bsp_delay.o(i.Delay_IIC), (24 bytes).
    Removing bsp_delay.o(i.Delay_ms), (16 bytes).
    Removing bsp_delay.o(i.Delay_us), (48 bytes).
    Removing bsp_delay.o(.data), (4 bytes).
    Removing bsp_usart.o(.rev16_text), (4 bytes).
    Removing bsp_usart.o(.revsh_text), (4 bytes).
    Removing bsp_usart.o(i.usart1_DMA_send_date), (68 bytes).
    Removing bsp_usart.o(i.usart_send_date), (68 bytes).
    Removing bsp_usart.o(.data), (4 bytes).
    Removing bsp_tim.o(.rev16_text), (4 bytes).
    Removing bsp_tim.o(.revsh_text), (4 bytes).
    Removing bsp_tim.o(i.TIM3_Init), (96 bytes).
    Removing bsp_tim.o(i.TIM5_ch1__ic_init), (176 bytes).
    Removing bsp_tim.o(i.get_led_pwm), (4 bytes).
    Removing bsp_pwm.o(.rev16_text), (4 bytes).
    Removing bsp_pwm.o(.revsh_text), (4 bytes).
    Removing bsp_pwm.o(i.TIM10_PWM_init), (156 bytes).
    Removing bsp_pwm.o(i.TIM1_PWM_init), (272 bytes).
    Removing bsp_pwm.o(i.TIM4_PWM_init), (160 bytes).
    Removing bsp_can.o(.rev16_text), (4 bytes).
    Removing bsp_can.o(.revsh_text), (4 bytes).
    Removing bsp_motor.o(.rev16_text), (4 bytes).
    Removing bsp_motor.o(.revsh_text), (4 bytes).
    Removing bsp_spi.o(.rev16_text), (4 bytes).
    Removing bsp_spi.o(.revsh_text), (4 bytes).
    Removing bsp_spi.o(i.SPI1_Init), (244 bytes).
    Removing bsp_spi.o(i.SPI_WriteData), (72 bytes).
    Removing bsp_gyro_accal.o(.rev16_text), (4 bytes).
    Removing bsp_gyro_accal.o(.revsh_text), (4 bytes).
    Removing pid.o(.rev16_text), (4 bytes).
    Removing pid.o(.revsh_text), (4 bytes).
    Removing z_math.o(i.FZ_math_bidire_compen), (36 bytes).
    Removing z_math.o(i.first_order_filter_cali), (78 bytes).
    Removing z_math.o(i.first_order_filter_init), (18 bytes).
    Removing ahrs_middleware.o(.rev16_text), (4 bytes).
    Removing ahrs_middleware.o(.revsh_text), (4 bytes).
    Removing ahrs_middleware.o(i.AHRS_acosf), (4 bytes).
    Removing ahrs_middleware.o(i.AHRS_tanf), (4 bytes).
    Removing event_groups.o(i.uxEventGroupGetNumber), (8 bytes).
    Removing event_groups.o(i.vEventGroupClearBitsCallback), (64 bytes).
    Removing event_groups.o(i.vEventGroupDelete), (90 bytes).
    Removing event_groups.o(i.vEventGroupSetBitsCallback), (4 bytes).
    Removing event_groups.o(i.vEventGroupSetNumber), (4 bytes).
    Removing event_groups.o(i.xEventGroupClearBits), (66 bytes).
    Removing event_groups.o(i.xEventGroupCreate), (26 bytes).
    Removing event_groups.o(i.xEventGroupGetBitsFromISR), (26 bytes).
    Removing event_groups.o(i.xEventGroupSetBits), (148 bytes).
    Removing event_groups.o(i.xEventGroupSync), (208 bytes).
    Removing event_groups.o(i.xEventGroupWaitBits), (276 bytes).
    Removing list.o(i.vListInsertEnd), (24 bytes).
    Removing queue.o(i.pcQueueGetName), (112 bytes).
    Removing queue.o(i.ucQueueGetQueueType), (6 bytes).
    Removing queue.o(i.uxQueueGetQueueNumber), (4 bytes).
    Removing queue.o(i.uxQueueMessagesWaiting), (36 bytes).
    Removing queue.o(i.uxQueueMessagesWaitingFromISR), (24 bytes).
    Removing queue.o(i.uxQueueSpacesAvailable), (40 bytes).
    Removing queue.o(i.vQueueDelete), (68 bytes).
    Removing queue.o(i.vQueueSetQueueNumber), (4 bytes).
    Removing queue.o(i.vQueueUnregisterQueue), (64 bytes).
    Removing queue.o(i.xQueueCreateCountingSemaphore), (42 bytes).
    Removing queue.o(i.xQueueCreateMutex), (36 bytes).
    Removing queue.o(i.xQueueGenericReset), (172 bytes).
    Removing queue.o(i.xQueueGenericSend), (468 bytes).
    Removing queue.o(i.xQueueGenericSendFromISR), (320 bytes).
    Removing queue.o(i.xQueueGiveFromISR), (192 bytes).
    Removing queue.o(i.xQueueGiveMutexRecursive), (62 bytes).
    Removing queue.o(i.xQueueIsQueueEmptyFromISR), (30 bytes).
    Removing queue.o(i.xQueueIsQueueFullFromISR), (32 bytes).
    Removing queue.o(i.xQueuePeek), (340 bytes).
    Removing queue.o(i.xQueuePeekFromISR), (136 bytes).
    Removing queue.o(i.xQueueReceiveFromISR), (210 bytes).
    Removing queue.o(i.xQueueSemaphoreTake), (388 bytes).
    Removing queue.o(i.xQueueTakeMutexRecursive), (66 bytes).
    Removing tasks.o(i.eTaskGetState), (128 bytes).
    Removing tasks.o(i.pcTaskGetName), (36 bytes).
    Removing tasks.o(i.prvListTasksWithinSingleList), (328 bytes).
    Removing tasks.o(i.pvTaskIncrementMutexHeldCount), (24 bytes).
    Removing tasks.o(i.ulTaskGenericNotifyTake), (120 bytes).
    Removing tasks.o(i.ulTaskGenericNotifyValueClear), (44 bytes).
    Removing tasks.o(i.uxTaskGetNumberOfTasks), (12 bytes).
    Removing tasks.o(i.uxTaskGetSystemState), (180 bytes).
    Removing tasks.o(i.uxTaskGetTaskNumber), (8 bytes).
    Removing tasks.o(i.uxTaskPriorityGet), (32 bytes).
    Removing tasks.o(i.uxTaskPriorityGetFromISR), (48 bytes).
    Removing tasks.o(i.uxTaskResetEventItemValue), (24 bytes).
    Removing tasks.o(i.vTaskDelete), (212 bytes).
    Removing tasks.o(i.vTaskEndScheduler), (28 bytes).
    Removing tasks.o(i.vTaskGenericNotifyGiveFromISR), (288 bytes).
    Removing tasks.o(i.vTaskGetInfo), (244 bytes).
    Removing tasks.o(i.vTaskPlaceOnUnorderedEventList), (132 bytes).
    Removing tasks.o(i.vTaskPriorityDisinheritAfterTimeout), (208 bytes).
    Removing tasks.o(i.vTaskPrioritySet), (240 bytes).
    Removing tasks.o(i.vTaskRemoveFromUnorderedEventList), (236 bytes).
    Removing tasks.o(i.vTaskResume), (180 bytes).
    Removing tasks.o(i.vTaskSetTaskNumber), (8 bytes).
    Removing tasks.o(i.vTaskSetTimeOutState), (48 bytes).
    Removing tasks.o(i.vTaskSuspend), (296 bytes).
    Removing tasks.o(i.xTaskCatchUpTicks), (60 bytes).
    Removing tasks.o(i.xTaskDelayUntil), (148 bytes).
    Removing tasks.o(i.xTaskGenericNotify), (324 bytes).
    Removing tasks.o(i.xTaskGenericNotifyFromISR), (384 bytes).
    Removing tasks.o(i.xTaskGenericNotifyStateClear), (64 bytes).
    Removing tasks.o(i.xTaskGenericNotifyWait), (160 bytes).
    Removing tasks.o(i.xTaskGetCurrentTaskHandle), (12 bytes).
    Removing tasks.o(i.xTaskGetTickCountFromISR), (16 bytes).
    Removing tasks.o(i.xTaskPriorityDisinherit), (184 bytes).
    Removing tasks.o(i.xTaskPriorityInherit), (184 bytes).
    Removing tasks.o(i.xTaskResumeFromISR), (204 bytes).
    Removing timers.o(i.pcTimerGetName), (24 bytes).
    Removing timers.o(i.pvTimerGetTimerID), (36 bytes).
    Removing timers.o(i.uxTimerGetReloadMode), (48 bytes).
    Removing timers.o(i.uxTimerGetTimerNumber), (4 bytes).
    Removing timers.o(i.vTimerSetReloadMode), (56 bytes).
    Removing timers.o(i.vTimerSetTimerID), (38 bytes).
    Removing timers.o(i.vTimerSetTimerNumber), (4 bytes).
    Removing timers.o(i.xTimerCreate), (168 bytes).
    Removing timers.o(i.xTimerGenericCommand), (120 bytes).
    Removing timers.o(i.xTimerGetExpiryTime), (24 bytes).
    Removing timers.o(i.xTimerGetPeriod), (24 bytes).
    Removing timers.o(i.xTimerGetReloadMode), (48 bytes).
    Removing timers.o(i.xTimerGetTimerDaemonTaskHandle), (32 bytes).
    Removing timers.o(i.xTimerIsTimerActive), (48 bytes).
    Removing heap_4.o(i.pvPortCalloc), (38 bytes).
    Removing heap_4.o(i.vPortGetHeapStats), (120 bytes).
    Removing heap_4.o(i.vPortInitialiseBlocks), (2 bytes).
    Removing heap_4.o(i.xPortGetFreeHeapSize), (12 bytes).
    Removing heap_4.o(i.xPortGetMinimumEverFreeHeapSize), (12 bytes).
    Removing port.o(i.vPortEndScheduler), (32 bytes).
    Removing port.o(i.vPortValidateInterruptPriority), (84 bytes).
    Removing rm_motor.o(.rev16_text), (4 bytes).
    Removing rm_motor.o(.revsh_text), (4 bytes).
    Removing rm_motor.o(i.motor_msg_decode_6020), (192 bytes).
    Removing arm_cos_f32.o(.rev16_text), (4 bytes).
    Removing arm_cos_f32.o(.revsh_text), (4 bytes).
    Removing arm_cos_f32.o(.rrx_text), (6 bytes).
    Removing arm_sin_f32.o(.rev16_text), (4 bytes).
    Removing arm_sin_f32.o(.revsh_text), (4 bytes).
    Removing arm_sin_f32.o(.rrx_text), (6 bytes).
    Removing arm_sin_cos_f32.o(.rev16_text), (4 bytes).
    Removing arm_sin_cos_f32.o(.revsh_text), (4 bytes).
    Removing arm_sin_cos_f32.o(.rrx_text), (6 bytes).
    Removing ahrs.o(i.get_carrier_gravity), (12 bytes).
    Removing ahrs.o(i.get_pitch), (46 bytes).
    Removing ahrs.o(i.get_roll), (82 bytes).
    Removing ahrs.o(i.get_yaw), (82 bytes).
    Removing arm_common_tables.o(.rev16_text), (4 bytes).
    Removing arm_common_tables.o(.revsh_text), (4 bytes).
    Removing arm_common_tables.o(.rrx_text), (6 bytes).
    Removing arm_common_tables.o(.constdata), (2048 bytes).
    Removing arm_common_tables.o(.constdata), (128 bytes).
    Removing arm_common_tables.o(.constdata), (256 bytes).
    Removing arm_common_tables.o(.constdata), (512 bytes).
    Removing arm_common_tables.o(.constdata), (1024 bytes).
    Removing arm_common_tables.o(.constdata), (2048 bytes).
    Removing arm_common_tables.o(.constdata), (4096 bytes).
    Removing arm_common_tables.o(.constdata), (8192 bytes).
    Removing arm_common_tables.o(.constdata), (16384 bytes).
    Removing arm_common_tables.o(.constdata), (32768 bytes).
    Removing arm_common_tables.o(.constdata), (96 bytes).
    Removing arm_common_tables.o(.constdata), (192 bytes).
    Removing arm_common_tables.o(.constdata), (384 bytes).
    Removing arm_common_tables.o(.constdata), (768 bytes).
    Removing arm_common_tables.o(.constdata), (1536 bytes).
    Removing arm_common_tables.o(.constdata), (3072 bytes).
    Removing arm_common_tables.o(.constdata), (6144 bytes).
    Removing arm_common_tables.o(.constdata), (12288 bytes).
    Removing arm_common_tables.o(.constdata), (24576 bytes).
    Removing arm_common_tables.o(.constdata), (48 bytes).
    Removing arm_common_tables.o(.constdata), (96 bytes).
    Removing arm_common_tables.o(.constdata), (192 bytes).
    Removing arm_common_tables.o(.constdata), (384 bytes).
    Removing arm_common_tables.o(.constdata), (768 bytes).
    Removing arm_common_tables.o(.constdata), (1536 bytes).
    Removing arm_common_tables.o(.constdata), (3072 bytes).
    Removing arm_common_tables.o(.constdata), (6144 bytes).
    Removing arm_common_tables.o(.constdata), (12288 bytes).
    Removing arm_common_tables.o(.constdata), (128 bytes).
    Removing arm_common_tables.o(.constdata), (256 bytes).
    Removing arm_common_tables.o(.constdata), (40 bytes).
    Removing arm_common_tables.o(.constdata), (96 bytes).
    Removing arm_common_tables.o(.constdata), (112 bytes).
    Removing arm_common_tables.o(.constdata), (416 bytes).
    Removing arm_common_tables.o(.constdata), (880 bytes).
    Removing arm_common_tables.o(.constdata), (896 bytes).
    Removing arm_common_tables.o(.constdata), (3600 bytes).
    Removing arm_common_tables.o(.constdata), (7616 bytes).
    Removing arm_common_tables.o(.constdata), (8064 bytes).
    Removing arm_common_tables.o(.constdata), (24 bytes).
    Removing arm_common_tables.o(.constdata), (48 bytes).
    Removing arm_common_tables.o(.constdata), (112 bytes).
    Removing arm_common_tables.o(.constdata), (224 bytes).
    Removing arm_common_tables.o(.constdata), (480 bytes).
    Removing arm_common_tables.o(.constdata), (960 bytes).
    Removing arm_common_tables.o(.constdata), (1984 bytes).
    Removing arm_common_tables.o(.constdata), (3968 bytes).
    Removing arm_common_tables.o(.constdata), (8064 bytes).
    Removing arm_common_tables.o(.constdata), (128 bytes).
    Removing arm_common_tables.o(.constdata), (256 bytes).
    Removing arm_common_tables.o(.constdata), (512 bytes).
    Removing arm_common_tables.o(.constdata), (1024 bytes).
    Removing arm_common_tables.o(.constdata), (2048 bytes).
    Removing arm_common_tables.o(.constdata), (4096 bytes).
    Removing arm_common_tables.o(.constdata), (8192 bytes).
    Removing arm_common_tables.o(.constdata), (16384 bytes).
    Removing arm_common_tables.o(.constdata), (2052 bytes).
    Removing arm_common_tables.o(.constdata), (1026 bytes).
    Removing dfltui.o(.text), (26 bytes).
    Removing ddiv.o(.text), (222 bytes).
    Removing dneg.o(.text), (6 bytes).

625 unused section(s) (total 239729 bytes) removed from the image.

==============================================================================

Image Symbol Table

    Local Symbols

    Symbol Name                              Value     Ov Type        Size  Object(Section)

    ../clib/../cmprslib/zerorunl2.c          0x00000000   Number         0  __dczerorl2.o ABSOLUTE
    ../clib/microlib/errno.c                 0x00000000   Number         0  errno.o ABSOLUTE
    ../clib/microlib/init/entry.s            0x00000000   Number         0  entry8b.o ABSOLUTE
    ../clib/microlib/init/entry.s            0x00000000   Number         0  entry11b.o ABSOLUTE
    ../clib/microlib/init/entry.s            0x00000000   Number         0  entry11a.o ABSOLUTE
    ../clib/microlib/init/entry.s            0x00000000   Number         0  entry10b.o ABSOLUTE
    ../clib/microlib/init/entry.s            0x00000000   Number         0  entry10a.o ABSOLUTE
    ../clib/microlib/init/entry.s            0x00000000   Number         0  entry9b.o ABSOLUTE
    ../clib/microlib/init/entry.s            0x00000000   Number         0  entry9a.o ABSOLUTE
    ../clib/microlib/init/entry.s            0x00000000   Number         0  entry8a.o ABSOLUTE
    ../clib/microlib/init/entry.s            0x00000000   Number         0  entry7a.o ABSOLUTE
    ../clib/microlib/init/entry.s            0x00000000   Number         0  entry5.o ABSOLUTE
    ../clib/microlib/init/entry.s            0x00000000   Number         0  entry2.o ABSOLUTE
    ../clib/microlib/init/entry.s            0x00000000   Number         0  entry.o ABSOLUTE
    ../clib/microlib/init/entry.s            0x00000000   Number         0  entry7b.o ABSOLUTE
    ../clib/microlib/longlong.c              0x00000000   Number         0  llshl.o ABSOLUTE
    ../clib/microlib/longlong.c              0x00000000   Number         0  llsshr.o ABSOLUTE
    ../clib/microlib/longlong.c              0x00000000   Number         0  llushr.o ABSOLUTE
    ../clib/microlib/string/memcpy.c         0x00000000   Number         0  memcpya.o ABSOLUTE
    ../clib/microlib/string/memcpy.c         0x00000000   Number         0  memcpyb.o ABSOLUTE
    ../clib/microlib/string/memset.c         0x00000000   Number         0  memseta.o ABSOLUTE
    ../clib/microlib/stubs.s                 0x00000000   Number         0  iusefp.o ABSOLUTE
    ../fplib/microlib/d2f.c                  0x00000000   Number         0  d2f.o ABSOLUTE
    ../fplib/microlib/f2d.c                  0x00000000   Number         0  f2d.o ABSOLUTE
    ../fplib/microlib/fpadd.c                0x00000000   Number         0  dadd.o ABSOLUTE
    ../fplib/microlib/fpdiv.c                0x00000000   Number         0  ddiv.o ABSOLUTE
    ../fplib/microlib/fpepilogue.c           0x00000000   Number         0  fepilogue.o ABSOLUTE
    ../fplib/microlib/fpepilogue.c           0x00000000   Number         0  depilogue.o ABSOLUTE
    ../fplib/microlib/fpflt.c                0x00000000   Number         0  dflti.o ABSOLUTE
    ../fplib/microlib/fpflt.c                0x00000000   Number         0  dfltui.o ABSOLUTE
    ../fplib/microlib/fpmul.c                0x00000000   Number         0  dmul.o ABSOLUTE
    ../fplib/microlib/fpneg.c                0x00000000   Number         0  dneg.o ABSOLUTE
    ../mathlib/acosf.c                       0x00000000   Number         0  acosf.o ABSOLUTE
    ../mathlib/acosf.c                       0x00000000   Number         0  acosf_x.o ABSOLUTE
    ../mathlib/asinf.c                       0x00000000   Number         0  asinf_x.o ABSOLUTE
    ../mathlib/asinf.c                       0x00000000   Number         0  asinf.o ABSOLUTE
    ../mathlib/atan.c                        0x00000000   Number         0  atan.o ABSOLUTE
    ../mathlib/atan.c                        0x00000000   Number         0  atan_x.o ABSOLUTE
    ../mathlib/atan2f.c                      0x00000000   Number         0  atan2f.o ABSOLUTE
    ../mathlib/atan2f.c                      0x00000000   Number         0  atan2f_x.o ABSOLUTE
    ../mathlib/dunder.c                      0x00000000   Number         0  dunder.o ABSOLUTE
    ../mathlib/fabs.c                        0x00000000   Number         0  fabs.o ABSOLUTE
    ../mathlib/fpclassify.c                  0x00000000   Number         0  fpclassify.o ABSOLUTE
    ../mathlib/fpclassifyf.c                 0x00000000   Number         0  fpclassifyf.o ABSOLUTE
    ../mathlib/funder.c                      0x00000000   Number         0  funder.o ABSOLUTE
    ../mathlib/poly.c                        0x00000000   Number         0  poly.o ABSOLUTE
    ../mathlib/rredf.c                       0x00000000   Number         0  rredf.o ABSOLUTE
    ../mathlib/sqrtf.c                       0x00000000   Number         0  sqrtf_full.o ABSOLUTE
    ../mathlib/sqrtf.c                       0x00000000   Number         0  sqrtf_full_x.o ABSOLUTE
    ../mathlib/tanf.c                        0x00000000   Number         0  tanf.o ABSOLUTE
    ../mathlib/tanf.c                        0x00000000   Number         0  tanf_x.o ABSOLUTE
    ..\APP\BUZZER_task.c                     0x00000000   Number         0  buzzer_task.o ABSOLUTE
    ..\APP\CHASSIS_behave.c                  0x00000000   Number         0  chassis_behave.o ABSOLUTE
    ..\APP\CHASSIS_task.c                    0x00000000   Number         0  chassis_task.o ABSOLUTE
    ..\APP\GYRO_task.c                       0x00000000   Number         0  gyro_task.o ABSOLUTE
    ..\APP\LED_Blink_task.c                  0x00000000   Number         0  led_blink_task.o ABSOLUTE
    ..\APP\REMOTE_task.c                     0x00000000   Number         0  remote_task.o ABSOLUTE
    ..\Alhorithm\AHRS_middleware.c           0x00000000   Number         0  ahrs_middleware.o ABSOLUTE
    ..\Alhorithm\PID.c                       0x00000000   Number         0  pid.o ABSOLUTE
    ..\Alhorithm\Z_math.c                    0x00000000   Number         0  z_math.o ABSOLUTE
    ..\BSP\BSP_CAN.c                         0x00000000   Number         0  bsp_can.o ABSOLUTE
    ..\BSP\BSP_Delay.c                       0x00000000   Number         0  bsp_delay.o ABSOLUTE
    ..\BSP\BSP_LED.c                         0x00000000   Number         0  bsp_led.o ABSOLUTE
    ..\BSP\BSP_Tim.c                         0x00000000   Number         0  bsp_tim.o ABSOLUTE
    ..\BSP\BSP_Usart.c                       0x00000000   Number         0  bsp_usart.o ABSOLUTE
    ..\BSP\BSP_gyro_accal.c                  0x00000000   Number         0  bsp_gyro_accal.o ABSOLUTE
    ..\BSP\BSP_motor.c                       0x00000000   Number         0  bsp_motor.o ABSOLUTE
    ..\BSP\BSP_pwm.c                         0x00000000   Number         0  bsp_pwm.o ABSOLUTE
    ..\BSP\BSP_spi.c                         0x00000000   Number         0  bsp_spi.o ABSOLUTE
    ..\CMSIS\startup_stm32f40_41xxx.s        0x00000000   Number         0  startup_stm32f40_41xxx.o ABSOLUTE
    ..\CommonTables\arm_common_tables.c      0x00000000   Number         0  arm_common_tables.o ABSOLUTE
    ..\ControllerFunctions\arm_sin_cos_f32.c 0x00000000   Number         0  arm_sin_cos_f32.o ABSOLUTE
    ..\Drivers\src\misc.c                    0x00000000   Number         0  misc.o ABSOLUTE
    ..\Drivers\src\stm32f4xx_adc.c           0x00000000   Number         0  stm32f4xx_adc.o ABSOLUTE
    ..\Drivers\src\stm32f4xx_can.c           0x00000000   Number         0  stm32f4xx_can.o ABSOLUTE
    ..\Drivers\src\stm32f4xx_dma.c           0x00000000   Number         0  stm32f4xx_dma.o ABSOLUTE
    ..\Drivers\src\stm32f4xx_exti.c          0x00000000   Number         0  stm32f4xx_exti.o ABSOLUTE
    ..\Drivers\src\stm32f4xx_flash.c         0x00000000   Number         0  stm32f4xx_flash.o ABSOLUTE
    ..\Drivers\src\stm32f4xx_flash_ramfunc.c 0x00000000   Number         0  stm32f4xx_flash_ramfunc.o ABSOLUTE
    ..\Drivers\src\stm32f4xx_gpio.c          0x00000000   Number         0  stm32f4xx_gpio.o ABSOLUTE
    ..\Drivers\src\stm32f4xx_i2c.c           0x00000000   Number         0  stm32f4xx_i2c.o ABSOLUTE
    ..\Drivers\src\stm32f4xx_rcc.c           0x00000000   Number         0  stm32f4xx_rcc.o ABSOLUTE
    ..\Drivers\src\stm32f4xx_spi.c           0x00000000   Number         0  stm32f4xx_spi.o ABSOLUTE
    ..\Drivers\src\stm32f4xx_syscfg.c        0x00000000   Number         0  stm32f4xx_syscfg.o ABSOLUTE
    ..\Drivers\src\stm32f4xx_tim.c           0x00000000   Number         0  stm32f4xx_tim.o ABSOLUTE
    ..\Drivers\src\stm32f4xx_usart.c         0x00000000   Number         0  stm32f4xx_usart.o ABSOLUTE
    ..\FastMathFunctions\arm_cos_f32.c       0x00000000   Number         0  arm_cos_f32.o ABSOLUTE
    ..\FastMathFunctions\arm_sin_f32.c       0x00000000   Number         0  arm_sin_f32.o ABSOLUTE
    ..\RTOS\croutine.c                       0x00000000   Number         0  croutine.o ABSOLUTE
    ..\RTOS\event_groups.c                   0x00000000   Number         0  event_groups.o ABSOLUTE
    ..\RTOS\list.c                           0x00000000   Number         0  list.o ABSOLUTE
    ..\RTOS\make_task.c                      0x00000000   Number         0  make_task.o ABSOLUTE
    ..\RTOS\portable\MemMang\heap_4.c        0x00000000   Number         0  heap_4.o ABSOLUTE
    ..\RTOS\portable\RVDS\ARM_CM4F\port.c    0x00000000   Number         0  port.o ABSOLUTE
    ..\RTOS\queue.c                          0x00000000   Number         0  queue.o ABSOLUTE
    ..\RTOS\tasks.c                          0x00000000   Number         0  tasks.o ABSOLUTE
    ..\RTOS\timers.c                         0x00000000   Number         0  timers.o ABSOLUTE
    ..\User\AHRS\AHRS.c                      0x00000000   Number         0  ahrs.o ABSOLUTE
    ..\\APP\\BUZZER_task.c                   0x00000000   Number         0  buzzer_task.o ABSOLUTE
    ..\\APP\\CHASSIS_behave.c                0x00000000   Number         0  chassis_behave.o ABSOLUTE
    ..\\APP\\CHASSIS_task.c                  0x00000000   Number         0  chassis_task.o ABSOLUTE
    ..\\APP\\GYRO_task.c                     0x00000000   Number         0  gyro_task.o ABSOLUTE
    ..\\APP\\LED_Blink_task.c                0x00000000   Number         0  led_blink_task.o ABSOLUTE
    ..\\APP\\REMOTE_task.c                   0x00000000   Number         0  remote_task.o ABSOLUTE
    ..\\Alhorithm\\AHRS_middleware.c         0x00000000   Number         0  ahrs_middleware.o ABSOLUTE
    ..\\Alhorithm\\PID.c                     0x00000000   Number         0  pid.o ABSOLUTE
    ..\\BSP\\BSP_CAN.c                       0x00000000   Number         0  bsp_can.o ABSOLUTE
    ..\\BSP\\BSP_Delay.c                     0x00000000   Number         0  bsp_delay.o ABSOLUTE
    ..\\BSP\\BSP_LED.c                       0x00000000   Number         0  bsp_led.o ABSOLUTE
    ..\\BSP\\BSP_Tim.c                       0x00000000   Number         0  bsp_tim.o ABSOLUTE
    ..\\BSP\\BSP_Usart.c                     0x00000000   Number         0  bsp_usart.o ABSOLUTE
    ..\\BSP\\BSP_gyro_accal.c                0x00000000   Number         0  bsp_gyro_accal.o ABSOLUTE
    ..\\BSP\\BSP_motor.c                     0x00000000   Number         0  bsp_motor.o ABSOLUTE
    ..\\BSP\\BSP_pwm.c                       0x00000000   Number         0  bsp_pwm.o ABSOLUTE
    ..\\BSP\\BSP_spi.c                       0x00000000   Number         0  bsp_spi.o ABSOLUTE
    ..\\CommonTables\\arm_common_tables.c    0x00000000   Number         0  arm_common_tables.o ABSOLUTE
    ..\\ControllerFunctions\\arm_sin_cos_f32.c 0x00000000   Number         0  arm_sin_cos_f32.o ABSOLUTE
    ..\\Drivers\\src\\misc.c                 0x00000000   Number         0  misc.o ABSOLUTE
    ..\\Drivers\\src\\stm32f4xx_adc.c        0x00000000   Number         0  stm32f4xx_adc.o ABSOLUTE
    ..\\Drivers\\src\\stm32f4xx_can.c        0x00000000   Number         0  stm32f4xx_can.o ABSOLUTE
    ..\\Drivers\\src\\stm32f4xx_dma.c        0x00000000   Number         0  stm32f4xx_dma.o ABSOLUTE
    ..\\Drivers\\src\\stm32f4xx_exti.c       0x00000000   Number         0  stm32f4xx_exti.o ABSOLUTE
    ..\\Drivers\\src\\stm32f4xx_flash.c      0x00000000   Number         0  stm32f4xx_flash.o ABSOLUTE
    ..\\Drivers\\src\\stm32f4xx_flash_ramfunc.c 0x00000000   Number         0  stm32f4xx_flash_ramfunc.o ABSOLUTE
    ..\\Drivers\\src\\stm32f4xx_gpio.c       0x00000000   Number         0  stm32f4xx_gpio.o ABSOLUTE
    ..\\Drivers\\src\\stm32f4xx_i2c.c        0x00000000   Number         0  stm32f4xx_i2c.o ABSOLUTE
    ..\\Drivers\\src\\stm32f4xx_rcc.c        0x00000000   Number         0  stm32f4xx_rcc.o ABSOLUTE
    ..\\Drivers\\src\\stm32f4xx_spi.c        0x00000000   Number         0  stm32f4xx_spi.o ABSOLUTE
    ..\\Drivers\\src\\stm32f4xx_syscfg.c     0x00000000   Number         0  stm32f4xx_syscfg.o ABSOLUTE
    ..\\Drivers\\src\\stm32f4xx_tim.c        0x00000000   Number         0  stm32f4xx_tim.o ABSOLUTE
    ..\\Drivers\\src\\stm32f4xx_usart.c      0x00000000   Number         0  stm32f4xx_usart.o ABSOLUTE
    ..\\FastMathFunctions\\arm_cos_f32.c     0x00000000   Number         0  arm_cos_f32.o ABSOLUTE
    ..\\FastMathFunctions\\arm_sin_f32.c     0x00000000   Number         0  arm_sin_f32.o ABSOLUTE
    ..\\RTOS\\make_task.c                    0x00000000   Number         0  make_task.o ABSOLUTE
    ..\\RTOS\\portable\\RVDS\\ARM_CM4F\\port.c 0x00000000   Number         0  port.o ABSOLUTE
    ..\\exti_driver\\RM_motor.c              0x00000000   Number         0  rm_motor.o ABSOLUTE
    ..\exti_driver\RM_motor.c                0x00000000   Number         0  rm_motor.o ABSOLUTE
    dc.s                                     0x00000000   Number         0  dc.o ABSOLUTE
    handlers.s                               0x00000000   Number         0  handlers.o ABSOLUTE
    init.s                                   0x00000000   Number         0  init.o ABSOLUTE
    main.c                                   0x00000000   Number         0  main.o ABSOLUTE
    main.c                                   0x00000000   Number         0  main.o ABSOLUTE
    stm32f4xx_it.c                           0x00000000   Number         0  stm32f4xx_it.o ABSOLUTE
    stm32f4xx_it.c                           0x00000000   Number         0  stm32f4xx_it.o ABSOLUTE
    system_stm32f4xx.c                       0x00000000   Number         0  system_stm32f4xx.o ABSOLUTE
    system_stm32f4xx.c                       0x00000000   Number         0  system_stm32f4xx.o ABSOLUTE
    RESET                                    0x08000000   Section      392  startup_stm32f40_41xxx.o(RESET)
    .ARM.Collect$$$$00000000                 0x08000188   Section        0  entry.o(.ARM.Collect$$$$00000000)
    .ARM.Collect$$$$00000001                 0x08000188   Section        4  entry2.o(.ARM.Collect$$$$00000001)
    .ARM.Collect$$$$00000004                 0x0800018c   Section        4  entry5.o(.ARM.Collect$$$$00000004)
    .ARM.Collect$$$$00000008                 0x08000190   Section        0  entry7b.o(.ARM.Collect$$$$00000008)
    .ARM.Collect$$$$0000000A                 0x08000190   Section        0  entry8b.o(.ARM.Collect$$$$0000000A)
    .ARM.Collect$$$$0000000B                 0x08000190   Section        8  entry9a.o(.ARM.Collect$$$$0000000B)
    .ARM.Collect$$$$0000000D                 0x08000198   Section        0  entry10a.o(.ARM.Collect$$$$0000000D)
    .ARM.Collect$$$$0000000F                 0x08000198   Section        0  entry11a.o(.ARM.Collect$$$$0000000F)
    .ARM.Collect$$$$00002712                 0x08000198   Section        4  entry2.o(.ARM.Collect$$$$00002712)
    __lit__00000000                          0x08000198   Data           4  entry2.o(.ARM.Collect$$$$00002712)
    .emb_text                                0x0800019c   Section      190  port.o(.emb_text)
    $v0                                      0x0800019c   Number         0  port.o(.emb_text)
    .text                                    0x0800025c   Section       36  startup_stm32f40_41xxx.o(.text)
    $v0                                      0x0800025c   Number         0  startup_stm32f40_41xxx.o(.text)
    .text                                    0x08000280   Section        0  arm_cos_f32.o(.text)
    .text                                    0x080002f8   Section        0  arm_sin_f32.o(.text)
    .text                                    0x0800036c   Section        0  arm_sin_cos_f32.o(.text)
    .text                                    0x08000470   Section        0  memcpya.o(.text)
    .text                                    0x08000494   Section        0  memseta.o(.text)
    .text                                    0x080004b8   Section        0  dadd.o(.text)
    .text                                    0x08000606   Section        0  dmul.o(.text)
    .text                                    0x080006ea   Section        0  dflti.o(.text)
    .text                                    0x0800070c   Section        0  f2d.o(.text)
    .text                                    0x08000732   Section        0  d2f.o(.text)
    .text                                    0x0800076a   Section        0  llshl.o(.text)
    .text                                    0x08000788   Section        0  llsshr.o(.text)
    .text                                    0x080007ac   Section        0  iusefp.o(.text)
    .text                                    0x080007ac   Section        0  fepilogue.o(.text)
    .text                                    0x0800081a   Section        0  depilogue.o(.text)
    .text                                    0x080008d4   Section       36  init.o(.text)
    .text                                    0x080008f8   Section        0  llushr.o(.text)
    .text                                    0x08000918   Section        0  __dczerorl2.o(.text)
    i.AHRS_asinf                             0x0800096e   Section        0  ahrs_middleware.o(i.AHRS_asinf)
    i.AHRS_atan2f                            0x08000972   Section        0  ahrs_middleware.o(i.AHRS_atan2f)
    i.AHRS_cosf                              0x08000976   Section        0  ahrs_middleware.o(i.AHRS_cosf)
    i.AHRS_fabs                              0x0800097a   Section        0  ahrs.o(i.AHRS_fabs)
    AHRS_fabs                                0x0800097b   Thumb Code    26  ahrs.o(i.AHRS_fabs)
    i.AHRS_get_height                        0x08000994   Section        0  ahrs_middleware.o(i.AHRS_get_height)
    i.AHRS_get_latitude                      0x080009a8   Section        0  ahrs_middleware.o(i.AHRS_get_latitude)
    i.AHRS_init                              0x080009b8   Section        0  ahrs.o(i.AHRS_init)
    i.AHRS_invSqrt                           0x08000c54   Section        0  ahrs_middleware.o(i.AHRS_invSqrt)
    i.AHRS_sinf                              0x08000c76   Section        0  ahrs_middleware.o(i.AHRS_sinf)
    i.AHRS_update                            0x08000c7a   Section        0  ahrs.o(i.AHRS_update)
    i.BMI088_delay_ms                        0x08000db4   Section        0  bsp_delay.o(i.BMI088_delay_ms)
    i.BMI088_delay_us                        0x08000df8   Section        0  bsp_delay.o(i.BMI088_delay_us)
    i.BMI088_init                            0x08000e28   Section        0  bsp_gyro_accal.o(i.BMI088_init)
    i.BMI088_read                            0x08000fd8   Section        0  bsp_gyro_accal.o(i.BMI088_read)
    i.BusFault_Handler                       0x0800118c   Section        0  stm32f4xx_it.o(i.BusFault_Handler)
    i.CAN1_RX0_IRQHandler                    0x08001190   Section        0  remote_task.o(i.CAN1_RX0_IRQHandler)
    i.CAN1_init                              0x08001218   Section        0  bsp_can.o(i.CAN1_init)
    i.CAN2_RX0_IRQHandler                    0x080012f4   Section        0  bsp_motor.o(i.CAN2_RX0_IRQHandler)
    i.CAN2_init                              0x08001348   Section        0  bsp_can.o(i.CAN2_init)
    i.CAN_ClearITPendingBit                  0x08001428   Section        0  stm32f4xx_can.o(i.CAN_ClearITPendingBit)
    i.CAN_FilterInit                         0x080014c4   Section        0  stm32f4xx_can.o(i.CAN_FilterInit)
    i.CAN_GetITStatus                        0x080015b4   Section        0  stm32f4xx_can.o(i.CAN_GetITStatus)
    i.CAN_ITConfig                           0x080016c4   Section        0  stm32f4xx_can.o(i.CAN_ITConfig)
    i.CAN_Init                               0x080016d4   Section        0  stm32f4xx_can.o(i.CAN_Init)
    i.CAN_Receive                            0x080017c8   Section        0  stm32f4xx_can.o(i.CAN_Receive)
    i.CAN_Transmit                           0x0800187c   Section        0  stm32f4xx_can.o(i.CAN_Transmit)
    i.CAN_TransmitStatus                     0x08001940   Section        0  stm32f4xx_can.o(i.CAN_TransmitStatus)
    i.Chassis_task                           0x080019c0   Section        0  chassis_task.o(i.Chassis_task)
    i.DMA_Init                               0x08001d6c   Section        0  stm32f4xx_dma.o(i.DMA_Init)
    i.DebugMon_Handler                       0x08001de4   Section        0  stm32f4xx_it.o(i.DebugMon_Handler)
    i.FZ_math_StepToSlope_cale               0x08001de6   Section        0  z_math.o(i.FZ_math_StepToSlope_cale)
    i.FZ_math_absolute                       0x08001e50   Section        0  z_math.o(i.FZ_math_absolute)
    i.FZ_math_limt                           0x08001e80   Section        0  z_math.o(i.FZ_math_limt)
    i.GPIO_Init                              0x08001ea4   Section        0  stm32f4xx_gpio.o(i.GPIO_Init)
    i.GPIO_PinAFConfig                       0x08001f3e   Section        0  stm32f4xx_gpio.o(i.GPIO_PinAFConfig)
    i.GPIO_ResetBits                         0x08001f60   Section        0  stm32f4xx_gpio.o(i.GPIO_ResetBits)
    i.GPIO_SetBits                           0x08001f64   Section        0  stm32f4xx_gpio.o(i.GPIO_SetBits)
    i.GYRO_task                              0x08001f68   Section        0  gyro_task.o(i.GYRO_task)
    i.HardFault_Handler                      0x08002254   Section        0  stm32f4xx_it.o(i.HardFault_Handler)
    i.LED_init                               0x08002258   Section        0  bsp_led.o(i.LED_init)
    i.MemManage_Handler                      0x080022c8   Section        0  stm32f4xx_it.o(i.MemManage_Handler)
    i.NMI_Handler                            0x080022ca   Section        0  stm32f4xx_it.o(i.NMI_Handler)
    i.NVIC_Init                              0x080022cc   Section        0  misc.o(i.NVIC_Init)
    i.NVIC_PriorityGroupConfig               0x0800233c   Section        0  misc.o(i.NVIC_PriorityGroupConfig)
    i.PID_Init                               0x08002350   Section        0  pid.o(i.PID_Init)
    i.PID_cale                               0x08002378   Section        0  pid.o(i.PID_cale)
    i.RCC_AHB1PeriphClockCmd                 0x0800242c   Section        0  stm32f4xx_rcc.o(i.RCC_AHB1PeriphClockCmd)
    i.RCC_APB1PeriphClockCmd                 0x08002444   Section        0  stm32f4xx_rcc.o(i.RCC_APB1PeriphClockCmd)
    i.RCC_APB2PeriphClockCmd                 0x0800245c   Section        0  stm32f4xx_rcc.o(i.RCC_APB2PeriphClockCmd)
    i.RCC_GetClocksFreq                      0x08002474   Section        0  stm32f4xx_rcc.o(i.RCC_GetClocksFreq)
    i.RM_motor_send                          0x08002520   Section        0  rm_motor.o(i.RM_motor_send)
    i.SPI_I2S_GetFlagStatus                  0x08002586   Section        0  stm32f4xx_spi.o(i.SPI_I2S_GetFlagStatus)
    i.SPI_I2S_ReceiveData                    0x08002594   Section        0  stm32f4xx_spi.o(i.SPI_I2S_ReceiveData)
    i.SPI_I2S_SendData                       0x08002598   Section        0  stm32f4xx_spi.o(i.SPI_I2S_SendData)
    i.SPI_ReadWriteByte                      0x0800259c   Section        0  bsp_spi.o(i.SPI_ReadWriteByte)
    i.SysTick_Handler                        0x080025cc   Section        0  port.o(i.SysTick_Handler)
    i.SystemInit                             0x080025f8   Section        0  system_stm32f4xx.o(i.SystemInit)
    i.TIM3_IRQHandler                        0x080026fc   Section        0  bsp_tim.o(i.TIM3_IRQHandler)
    i.TIM5_IRQHandler                        0x08002720   Section        0  bsp_tim.o(i.TIM5_IRQHandler)
    i.TIM_ClearITPendingBit                  0x080027a4   Section        0  stm32f4xx_tim.o(i.TIM_ClearITPendingBit)
    i.TIM_Cmd                                0x080027aa   Section        0  stm32f4xx_tim.o(i.TIM_Cmd)
    i.TIM_GetCapture1                        0x080027bc   Section        0  stm32f4xx_tim.o(i.TIM_GetCapture1)
    i.TIM_GetITStatus                        0x080027c0   Section        0  stm32f4xx_tim.o(i.TIM_GetITStatus)
    i.TIM_OC1PolarityConfig                  0x080027d6   Section        0  stm32f4xx_tim.o(i.TIM_OC1PolarityConfig)
    i.TIM_SetCompare1                        0x080027e2   Section        0  stm32f4xx_tim.o(i.TIM_SetCompare1)
    i.TIM_SetCompare3                        0x080027e6   Section        0  stm32f4xx_tim.o(i.TIM_SetCompare3)
    i.TIM_SetCounter                         0x080027ea   Section        0  stm32f4xx_tim.o(i.TIM_SetCounter)
    i.USART1_Init                            0x080027f0   Section        0  bsp_usart.o(i.USART1_Init)
    i.USART_Cmd                              0x08002928   Section        0  stm32f4xx_usart.o(i.USART_Cmd)
    i.USART_DMACmd                           0x0800293a   Section        0  stm32f4xx_usart.o(i.USART_DMACmd)
    i.USART_ITConfig                         0x0800294a   Section        0  stm32f4xx_usart.o(i.USART_ITConfig)
    i.USART_Init                             0x0800297c   Section        0  stm32f4xx_usart.o(i.USART_Init)
    i.UsageFault_Handler                     0x08002a34   Section        0  stm32f4xx_it.o(i.UsageFault_Handler)
    i.VLEDBlink_ofdetection_update           0x08002a38   Section        0  led_blink_task.o(i.VLEDBlink_ofdetection_update)
    i.__ARM_fpclassifyf                      0x08002a44   Section        0  fpclassifyf.o(i.__ARM_fpclassifyf)
    i.__hardfp_asinf                         0x08002a6c   Section        0  asinf.o(i.__hardfp_asinf)
    i.__hardfp_atan2f                        0x08002b98   Section        0  atan2f.o(i.__hardfp_atan2f)
    i.__hardfp_sqrtf                         0x08002de8   Section        0  sqrtf_full.o(i.__hardfp_sqrtf)
    i.__mathlib_flt_infnan                   0x08002e22   Section        0  funder.o(i.__mathlib_flt_infnan)
    i.__mathlib_flt_infnan2                  0x08002e28   Section        0  funder.o(i.__mathlib_flt_infnan2)
    i.__mathlib_flt_invalid                  0x08002e30   Section        0  funder.o(i.__mathlib_flt_invalid)
    i.__mathlib_flt_underflow                0x08002e40   Section        0  funder.o(i.__mathlib_flt_underflow)
    i.__scatterload_copy                     0x08002e50   Section       14  handlers.o(i.__scatterload_copy)
    i.__scatterload_null                     0x08002e5e   Section        2  handlers.o(i.__scatterload_null)
    i.__scatterload_zeroinit                 0x08002e60   Section       14  handlers.o(i.__scatterload_zeroinit)
    i.__set_errno                            0x08002e70   Section        0  errno.o(i.__set_errno)
    i.accel_comple_filter                    0x08002e7c   Section        0  ahrs.o(i.accel_comple_filter)
    accel_comple_filter                      0x08002e7d   Thumb Code   454  ahrs.o(i.accel_comple_filter)
    i.accel_update_kp_ki                     0x0800304c   Section        0  ahrs.o(i.accel_update_kp_ki)
    accel_update_kp_ki                       0x0800304d   Thumb Code   370  ahrs.o(i.accel_update_kp_ki)
    i.angle_to_quat                          0x080031d8   Section        0  ahrs.o(i.angle_to_quat)
    angle_to_quat                            0x080031d9   Thumb Code   364  ahrs.o(i.angle_to_quat)
    i.bmi088_accel_self_test                 0x08003344   Section        0  bsp_gyro_accal.o(i.bmi088_accel_self_test)
    i.bmi088_gyro_init                       0x08003734   Section        0  bsp_gyro_accal.o(i.bmi088_gyro_init)
    i.bmi088_gyro_self_test                  0x0800389c   Section        0  bsp_gyro_accal.o(i.bmi088_gyro_self_test)
    i.buzzer_task                            0x080039e4   Section        0  buzzer_task.o(i.buzzer_task)
    i.chassis_follow_chassis_solve           0x08003a30   Section        0  chassis_behave.o(i.chassis_follow_chassis_solve)
    i.chassis_follow_gym_solve               0x08003a84   Section        0  chassis_behave.o(i.chassis_follow_gym_solve)
    i.chassis_revolve_solve                  0x08003b28   Section        0  chassis_behave.o(i.chassis_revolve_solve)
    i.chassis_zero_solve                     0x08003bac   Section        0  chassis_behave.o(i.chassis_zero_solve)
    i.create_task                            0x08003bb4   Section        0  make_task.o(i.create_task)
    i.get_angle                              0x08003c50   Section        0  ahrs.o(i.get_angle)
    i.get_angle_p                            0x08003d38   Section        0  remote_task.o(i.get_angle_p)
    i.get_speed_set_p                        0x08003d40   Section        0  remote_task.o(i.get_speed_set_p)
    i.imu_cali_slove                         0x08003d48   Section        0  gyro_task.o(i.imu_cali_slove)
    imu_cali_slove                           0x08003d49   Thumb Code   466  gyro_task.o(i.imu_cali_slove)
    i.led_task                               0x08003f24   Section        0  led_blink_task.o(i.led_task)
    i.main                                   0x08004068   Section        0  main.o(i.main)
    i.motor_msg_decode_3508                  0x0800408c   Section        0  rm_motor.o(i.motor_msg_decode_3508)
    i.prvAddCurrentTaskToDelayedList         0x080040d8   Section        0  tasks.o(i.prvAddCurrentTaskToDelayedList)
    prvAddCurrentTaskToDelayedList           0x080040d9   Thumb Code   136  tasks.o(i.prvAddCurrentTaskToDelayedList)
    i.prvIdleTask                            0x08004168   Section        0  tasks.o(i.prvIdleTask)
    prvIdleTask                              0x08004169   Thumb Code    88  tasks.o(i.prvIdleTask)
    i.prvProcessExpiredTimer                 0x080041cc   Section        0  timers.o(i.prvProcessExpiredTimer)
    prvProcessExpiredTimer                   0x080041cd   Thumb Code   156  timers.o(i.prvProcessExpiredTimer)
    i.prvSampleTimeNow                       0x0800426c   Section        0  timers.o(i.prvSampleTimeNow)
    prvSampleTimeNow                         0x0800426d   Thumb Code   208  timers.o(i.prvSampleTimeNow)
    i.prvTaskExitError                       0x08004340   Section        0  port.o(i.prvTaskExitError)
    prvTaskExitError                         0x08004341   Thumb Code    38  port.o(i.prvTaskExitError)
    i.prvTimerTask                           0x0800436c   Section        0  timers.o(i.prvTimerTask)
    prvTimerTask                             0x0800436d   Thumb Code   706  timers.o(i.prvTimerTask)
    i.prvUnlockQueue                         0x08004638   Section        0  queue.o(i.prvUnlockQueue)
    prvUnlockQueue                           0x08004639   Thumb Code   108  queue.o(i.prvUnlockQueue)
    i.pvPortMalloc                           0x080046a4   Section        0  heap_4.o(i.pvPortMalloc)
    i.pxPortInitialiseStack                  0x0800480c   Section        0  port.o(i.pxPortInitialiseStack)
    i.quat_normalization                     0x08004838   Section        0  ahrs.o(i.quat_normalization)
    quat_normalization                       0x08004839   Thumb Code   126  ahrs.o(i.quat_normalization)
    i.sqrtf                                  0x080048bc   Section        0  sqrtf_full.o(i.sqrtf)
    i.update_w                               0x080048fa   Section        0  ahrs.o(i.update_w)
    update_w                                 0x080048fb   Thumb Code   122  ahrs.o(i.update_w)
    i.uxListRemove                           0x08004974   Section        0  list.o(i.uxListRemove)
    i.vListInitialise                        0x0800499a   Section        0  list.o(i.vListInitialise)
    i.vListInitialiseItem                    0x080049b0   Section        0  list.o(i.vListInitialiseItem)
    i.vListInsert                            0x080049b8   Section        0  list.o(i.vListInsert)
    i.vPortEnterCritical                     0x080049f4   Section        0  port.o(i.vPortEnterCritical)
    i.vPortExitCritical                      0x08004a34   Section        0  port.o(i.vPortExitCritical)
    i.vPortFree                              0x08004a60   Section        0  heap_4.o(i.vPortFree)
    i.vPortSetupTimerInterrupt               0x08004b08   Section        0  port.o(i.vPortSetupTimerInterrupt)
    i.vQueueAddToRegistry                    0x08004b2c   Section        0  queue.o(i.vQueueAddToRegistry)
    i.vQueueWaitForMessageRestricted         0x08004b84   Section        0  queue.o(i.vQueueWaitForMessageRestricted)
    i.vTaskDelay                             0x08004bd0   Section        0  tasks.o(i.vTaskDelay)
    i.vTaskInternalSetTimeOutState           0x08004c1c   Section        0  tasks.o(i.vTaskInternalSetTimeOutState)
    i.vTaskMissedYield                       0x08004c2c   Section        0  tasks.o(i.vTaskMissedYield)
    i.vTaskPlaceOnEventList                  0x08004c38   Section        0  tasks.o(i.vTaskPlaceOnEventList)
    i.vTaskPlaceOnEventListRestricted        0x08004c6c   Section        0  tasks.o(i.vTaskPlaceOnEventListRestricted)
    i.vTaskStartScheduler                    0x08004cc0   Section        0  tasks.o(i.vTaskStartScheduler)
    i.vTaskSuspendAll                        0x08004d38   Section        0  tasks.o(i.vTaskSuspendAll)
    i.vTaskSwitchContext                     0x08004d48   Section        0  tasks.o(i.vTaskSwitchContext)
    i.xPortStartScheduler                    0x08004da4   Section        0  port.o(i.xPortStartScheduler)
    i.xQueueGenericCreate                    0x08004ea8   Section        0  queue.o(i.xQueueGenericCreate)
    i.xQueueReceive                          0x08004f58   Section        0  queue.o(i.xQueueReceive)
    i.xTaskCheckForTimeOut                   0x080050b0   Section        0  tasks.o(i.xTaskCheckForTimeOut)
    i.xTaskCreate                            0x08005138   Section        0  tasks.o(i.xTaskCreate)
    i.xTaskGetSchedulerState                 0x080052ec   Section        0  tasks.o(i.xTaskGetSchedulerState)
    i.xTaskGetTickCount                      0x08005308   Section        0  tasks.o(i.xTaskGetTickCount)
    i.xTaskIncrementTick                     0x08005314   Section        0  tasks.o(i.xTaskIncrementTick)
    i.xTaskRemoveFromEventList               0x0800549c   Section        0  tasks.o(i.xTaskRemoveFromEventList)
    i.xTaskResumeAll                         0x0800558c   Section        0  tasks.o(i.xTaskResumeAll)
    i.xTimerCreateTimerTask                  0x080056dc   Section        0  timers.o(i.xTimerCreateTimerTask)
    .constdata                               0x08005770   Section       12  gyro_task.o(.constdata)
    .constdata                               0x0800577c   Section       18  bsp_gyro_accal.o(.constdata)
    write_BMI088_ACCEL_self_test_Reg_Data_Error 0x0800577c   Data          18  bsp_gyro_accal.o(.constdata)
    .constdata                               0x08005790   Section       12  ahrs.o(.constdata)
    .constdata                               0x0800579c   Section     2052  arm_common_tables.o(.constdata)
    .data                                    0x20000000   Section       20  system_stm32f4xx.o(.data)
    .data                                    0x20000014   Section       16  stm32f4xx_rcc.o(.data)
    APBAHBPrescTable                         0x20000014   Data          16  stm32f4xx_rcc.o(.data)
    .data                                    0x20000024   Section        7  led_blink_task.o(.data)
    .data                                    0x2000002b   Section       16  remote_task.o(.data)
    .data                                    0x2000003c   Section      108  gyro_task.o(.data)
    .data                                    0x200000a8   Section        1  bsp_usart.o(.data)
    .data                                    0x200000ac   Section        8  bsp_tim.o(.data)
    .data                                    0x200000b4   Section       44  bsp_gyro_accal.o(.data)
    write_BMI088_accel_reg_data_error        0x200000bc   Data          18  bsp_gyro_accal.o(.data)
    write_BMI088_gyro_reg_data_error         0x200000ce   Data          18  bsp_gyro_accal.o(.data)
    .data                                    0x200000e0   Section       64  tasks.o(.data)
    uxDeletedTasksWaitingCleanUp             0x200000e4   Data           4  tasks.o(.data)
    uxCurrentNumberOfTasks                   0x200000e8   Data           4  tasks.o(.data)
    xTickCount                               0x200000ec   Data           4  tasks.o(.data)
    uxTopReadyPriority                       0x200000f0   Data           4  tasks.o(.data)
    xSchedulerRunning                        0x200000f4   Data           4  tasks.o(.data)
    xPendedTicks                             0x200000f8   Data           4  tasks.o(.data)
    xYieldPending                            0x200000fc   Data           4  tasks.o(.data)
    xNumOfOverflows                          0x20000100   Data           4  tasks.o(.data)
    uxTaskNumber                             0x20000104   Data           4  tasks.o(.data)
    xNextTaskUnblockTime                     0x20000108   Data           4  tasks.o(.data)
    xIdleTaskHandle                          0x2000010c   Data           4  tasks.o(.data)
    uxSchedulerSuspended                     0x20000114   Data           4  tasks.o(.data)
    pxDelayedTaskList                        0x20000118   Data           4  tasks.o(.data)
    pxOverflowDelayedTaskList                0x2000011c   Data           4  tasks.o(.data)
    .data                                    0x20000120   Section       20  timers.o(.data)
    xTimerQueue                              0x20000120   Data           4  timers.o(.data)
    xTimerTaskHandle                         0x20000124   Data           4  timers.o(.data)
    xLastTime                                0x20000128   Data           4  timers.o(.data)
    pxCurrentTimerList                       0x2000012c   Data           4  timers.o(.data)
    pxOverflowTimerList                      0x20000130   Data           4  timers.o(.data)
    .data                                    0x20000134   Section       28  heap_4.o(.data)
    pxEnd                                    0x20000134   Data           4  heap_4.o(.data)
    xFreeBytesRemaining                      0x20000138   Data           4  heap_4.o(.data)
    xMinimumEverFreeBytesRemaining           0x2000013c   Data           4  heap_4.o(.data)
    xNumberOfSuccessfulAllocations           0x20000140   Data           4  heap_4.o(.data)
    xNumberOfSuccessfulFrees                 0x20000144   Data           4  heap_4.o(.data)
    xStart                                   0x20000148   Data           8  heap_4.o(.data)
    .data                                    0x20000150   Section       12  port.o(.data)
    ucMaxSysCallPriority                     0x20000150   Data           1  port.o(.data)
    uxCriticalNesting                        0x20000154   Data           4  port.o(.data)
    ulMaxPRIGROUPValue                       0x20000158   Data           4  port.o(.data)
    .data                                    0x2000015c   Section       16  ahrs.o(.data)
    local_hight                              0x2000015c   Data           4  ahrs.o(.data)
    latitude                                 0x20000160   Data           4  ahrs.o(.data)
    local_gravity                            0x20000164   Data           4  ahrs.o(.data)
    carrier_gravity                          0x20000168   Data           4  ahrs.o(.data)
    .data                                    0x2000016c   Section        4  errno.o(.data)
    _errno                                   0x2000016c   Data           4  errno.o(.data)
    .bss                                     0x20000170   Section       20  led_blink_task.o(.bss)
    time_list                                0x20000170   Data          20  led_blink_task.o(.bss)
    .bss                                     0x20000184   Section      552  chassis_task.o(.bss)
    .bss                                     0x200003ac   Section      280  gyro_task.o(.bss)
    accel_fliter_1                           0x200003d0   Data          12  gyro_task.o(.bss)
    accel_fliter_2                           0x200003dc   Data          12  gyro_task.o(.bss)
    accel_fliter_3                           0x200003e8   Data          12  gyro_task.o(.bss)
    INS_gyro                                 0x200003f4   Data          12  gyro_task.o(.bss)
    INS_accel                                0x20000400   Data          12  gyro_task.o(.bss)
    INS_mag                                  0x2000040c   Data          12  gyro_task.o(.bss)
    INS_quat                                 0x20000418   Data          16  gyro_task.o(.bss)
    .bss                                     0x200004c4   Section       34  bsp_usart.o(.bss)
    .bss                                     0x200004e8   Section       64  queue.o(.bss)
    .bss                                     0x20000528   Section      200  tasks.o(.bss)
    pxReadyTasksLists                        0x20000528   Data         100  tasks.o(.bss)
    xDelayedTaskList1                        0x2000058c   Data          20  tasks.o(.bss)
    xDelayedTaskList2                        0x200005a0   Data          20  tasks.o(.bss)
    xPendingReadyList                        0x200005b4   Data          20  tasks.o(.bss)
    xTasksWaitingTermination                 0x200005c8   Data          20  tasks.o(.bss)
    xSuspendedTaskList                       0x200005dc   Data          20  tasks.o(.bss)
    .bss                                     0x200005f0   Section       40  timers.o(.bss)
    xActiveTimerList1                        0x200005f0   Data          20  timers.o(.bss)
    xActiveTimerList2                        0x20000604   Data          20  timers.o(.bss)
    .bss                                     0x20000618   Section    76800  heap_4.o(.bss)
    ucHeap                                   0x20000618   Data       76800  heap_4.o(.bss)
    STACK                                    0x20013218   Section     1024  startup_stm32f40_41xxx.o(STACK)

    Global Symbols

    Symbol Name                              Value     Ov Type        Size  Object(Section)

    BuildAttributes$$THM_ISAv4$E$P$D$K$B$S$7EM$VFPi3$EXTD16$VFPS$VFMA$PE$A:L22UL41UL21$X:L11$S22US41US21$IEEE1$IW$USESV6$~STKCKD$USESV7$~SHL$OTIME$ROPI$IEEEX$EBA8$MICROLIB$REQ8$PRES8$EABIv2 0x00000000   Number         0  anon$$obj.o ABSOLUTE
    __ARM_use_no_argv                        0x00000000   Number         0  main.o ABSOLUTE
    __cpp_initialize__aeabi_                  - Undefined Weak Reference
    __cxa_finalize                            - Undefined Weak Reference
    _clock_init                               - Undefined Weak Reference
    _microlib_exit                            - Undefined Weak Reference
    __Vectors_Size                           0x00000188   Number         0  startup_stm32f40_41xxx.o ABSOLUTE
    __Vectors                                0x08000000   Data           4  startup_stm32f40_41xxx.o(RESET)
    __Vectors_End                            0x08000188   Data           0  startup_stm32f40_41xxx.o(RESET)
    __main                                   0x08000189   Thumb Code     0  entry.o(.ARM.Collect$$$$00000000)
    _main_stk                                0x08000189   Thumb Code     0  entry2.o(.ARM.Collect$$$$00000001)
    _main_scatterload                        0x0800018d   Thumb Code     0  entry5.o(.ARM.Collect$$$$00000004)
    __main_after_scatterload                 0x08000191   Thumb Code     0  entry5.o(.ARM.Collect$$$$00000004)
    _main_clock                              0x08000191   Thumb Code     0  entry7b.o(.ARM.Collect$$$$00000008)
    _main_cpp_init                           0x08000191   Thumb Code     0  entry8b.o(.ARM.Collect$$$$0000000A)
    _main_init                               0x08000191   Thumb Code     0  entry9a.o(.ARM.Collect$$$$0000000B)
    __rt_final_cpp                           0x08000199   Thumb Code     0  entry10a.o(.ARM.Collect$$$$0000000D)
    __rt_final_exit                          0x08000199   Thumb Code     0  entry11a.o(.ARM.Collect$$$$0000000F)
    SVC_Handler                              0x0800019d   Thumb Code    28  port.o(.emb_text)
    __asm___6_port_c_39a90d8d__prvStartFirstTask 0x080001bd   Thumb Code    36  port.o(.emb_text)
    __asm___6_port_c_39a90d8d__prvEnableVFP  0x080001e5   Thumb Code    16  port.o(.emb_text)
    PendSV_Handler                           0x080001f9   Thumb Code    88  port.o(.emb_text)
    vPortGetIPSR                             0x08000255   Thumb Code     6  port.o(.emb_text)
    Reset_Handler                            0x0800025d   Thumb Code     8  startup_stm32f40_41xxx.o(.text)
    ADC_IRQHandler                           0x08000277   Thumb Code     0  startup_stm32f40_41xxx.o(.text)
    CAN1_RX1_IRQHandler                      0x08000277   Thumb Code     0  startup_stm32f40_41xxx.o(.text)
    CAN1_SCE_IRQHandler                      0x08000277   Thumb Code     0  startup_stm32f40_41xxx.o(.text)
    CAN1_TX_IRQHandler                       0x08000277   Thumb Code     0  startup_stm32f40_41xxx.o(.text)
    CAN2_RX1_IRQHandler                      0x08000277   Thumb Code     0  startup_stm32f40_41xxx.o(.text)
    CAN2_SCE_IRQHandler                      0x08000277   Thumb Code     0  startup_stm32f40_41xxx.o(.text)
    CAN2_TX_IRQHandler                       0x08000277   Thumb Code     0  startup_stm32f40_41xxx.o(.text)
    CRYP_IRQHandler                          0x08000277   Thumb Code     0  startup_stm32f40_41xxx.o(.text)
    DCMI_IRQHandler                          0x08000277   Thumb Code     0  startup_stm32f40_41xxx.o(.text)
    DMA1_Stream0_IRQHandler                  0x08000277   Thumb Code     0  startup_stm32f40_41xxx.o(.text)
    DMA1_Stream1_IRQHandler                  0x08000277   Thumb Code     0  startup_stm32f40_41xxx.o(.text)
    DMA1_Stream2_IRQHandler                  0x08000277   Thumb Code     0  startup_stm32f40_41xxx.o(.text)
    DMA1_Stream3_IRQHandler                  0x08000277   Thumb Code     0  startup_stm32f40_41xxx.o(.text)
    DMA1_Stream4_IRQHandler                  0x08000277   Thumb Code     0  startup_stm32f40_41xxx.o(.text)
    DMA1_Stream5_IRQHandler                  0x08000277   Thumb Code     0  startup_stm32f40_41xxx.o(.text)
    DMA1_Stream6_IRQHandler                  0x08000277   Thumb Code     0  startup_stm32f40_41xxx.o(.text)
    DMA1_Stream7_IRQHandler                  0x08000277   Thumb Code     0  startup_stm32f40_41xxx.o(.text)
    DMA2_Stream0_IRQHandler                  0x08000277   Thumb Code     0  startup_stm32f40_41xxx.o(.text)
    DMA2_Stream1_IRQHandler                  0x08000277   Thumb Code     0  startup_stm32f40_41xxx.o(.text)
    DMA2_Stream2_IRQHandler                  0x08000277   Thumb Code     0  startup_stm32f40_41xxx.o(.text)
    DMA2_Stream3_IRQHandler                  0x08000277   Thumb Code     0  startup_stm32f40_41xxx.o(.text)
    DMA2_Stream4_IRQHandler                  0x08000277   Thumb Code     0  startup_stm32f40_41xxx.o(.text)
    DMA2_Stream5_IRQHandler                  0x08000277   Thumb Code     0  startup_stm32f40_41xxx.o(.text)
    DMA2_Stream6_IRQHandler                  0x08000277   Thumb Code     0  startup_stm32f40_41xxx.o(.text)
    DMA2_Stream7_IRQHandler                  0x08000277   Thumb Code     0  startup_stm32f40_41xxx.o(.text)
    ETH_IRQHandler                           0x08000277   Thumb Code     0  startup_stm32f40_41xxx.o(.text)
    ETH_WKUP_IRQHandler                      0x08000277   Thumb Code     0  startup_stm32f40_41xxx.o(.text)
    EXTI0_IRQHandler                         0x08000277   Thumb Code     0  startup_stm32f40_41xxx.o(.text)
    EXTI15_10_IRQHandler                     0x08000277   Thumb Code     0  startup_stm32f40_41xxx.o(.text)
    EXTI1_IRQHandler                         0x08000277   Thumb Code     0  startup_stm32f40_41xxx.o(.text)
    EXTI2_IRQHandler                         0x08000277   Thumb Code     0  startup_stm32f40_41xxx.o(.text)
    EXTI3_IRQHandler                         0x08000277   Thumb Code     0  startup_stm32f40_41xxx.o(.text)
    EXTI4_IRQHandler                         0x08000277   Thumb Code     0  startup_stm32f40_41xxx.o(.text)
    EXTI9_5_IRQHandler                       0x08000277   Thumb Code     0  startup_stm32f40_41xxx.o(.text)
    FLASH_IRQHandler                         0x08000277   Thumb Code     0  startup_stm32f40_41xxx.o(.text)
    FPU_IRQHandler                           0x08000277   Thumb Code     0  startup_stm32f40_41xxx.o(.text)
    FSMC_IRQHandler                          0x08000277   Thumb Code     0  startup_stm32f40_41xxx.o(.text)
    HASH_RNG_IRQHandler                      0x08000277   Thumb Code     0  startup_stm32f40_41xxx.o(.text)
    I2C1_ER_IRQHandler                       0x08000277   Thumb Code     0  startup_stm32f40_41xxx.o(.text)
    I2C1_EV_IRQHandler                       0x08000277   Thumb Code     0  startup_stm32f40_41xxx.o(.text)
    I2C2_ER_IRQHandler                       0x08000277   Thumb Code     0  startup_stm32f40_41xxx.o(.text)
    I2C2_EV_IRQHandler                       0x08000277   Thumb Code     0  startup_stm32f40_41xxx.o(.text)
    I2C3_ER_IRQHandler                       0x08000277   Thumb Code     0  startup_stm32f40_41xxx.o(.text)
    I2C3_EV_IRQHandler                       0x08000277   Thumb Code     0  startup_stm32f40_41xxx.o(.text)
    OTG_FS_IRQHandler                        0x08000277   Thumb Code     0  startup_stm32f40_41xxx.o(.text)
    OTG_FS_WKUP_IRQHandler                   0x08000277   Thumb Code     0  startup_stm32f40_41xxx.o(.text)
    OTG_HS_EP1_IN_IRQHandler                 0x08000277   Thumb Code     0  startup_stm32f40_41xxx.o(.text)
    OTG_HS_EP1_OUT_IRQHandler                0x08000277   Thumb Code     0  startup_stm32f40_41xxx.o(.text)
    OTG_HS_IRQHandler                        0x08000277   Thumb Code     0  startup_stm32f40_41xxx.o(.text)
    OTG_HS_WKUP_IRQHandler                   0x08000277   Thumb Code     0  startup_stm32f40_41xxx.o(.text)
    PVD_IRQHandler                           0x08000277   Thumb Code     0  startup_stm32f40_41xxx.o(.text)
    RCC_IRQHandler                           0x08000277   Thumb Code     0  startup_stm32f40_41xxx.o(.text)
    RTC_Alarm_IRQHandler                     0x08000277   Thumb Code     0  startup_stm32f40_41xxx.o(.text)
    RTC_WKUP_IRQHandler                      0x08000277   Thumb Code     0  startup_stm32f40_41xxx.o(.text)
    SDIO_IRQHandler                          0x08000277   Thumb Code     0  startup_stm32f40_41xxx.o(.text)
    SPI1_IRQHandler                          0x08000277   Thumb Code     0  startup_stm32f40_41xxx.o(.text)
    SPI2_IRQHandler                          0x08000277   Thumb Code     0  startup_stm32f40_41xxx.o(.text)
    SPI3_IRQHandler                          0x08000277   Thumb Code     0  startup_stm32f40_41xxx.o(.text)
    TAMP_STAMP_IRQHandler                    0x08000277   Thumb Code     0  startup_stm32f40_41xxx.o(.text)
    TIM1_BRK_TIM9_IRQHandler                 0x08000277   Thumb Code     0  startup_stm32f40_41xxx.o(.text)
    TIM1_CC_IRQHandler                       0x08000277   Thumb Code     0  startup_stm32f40_41xxx.o(.text)
    TIM1_TRG_COM_TIM11_IRQHandler            0x08000277   Thumb Code     0  startup_stm32f40_41xxx.o(.text)
    TIM1_UP_TIM10_IRQHandler                 0x08000277   Thumb Code     0  startup_stm32f40_41xxx.o(.text)
    TIM2_IRQHandler                          0x08000277   Thumb Code     0  startup_stm32f40_41xxx.o(.text)
    TIM4_IRQHandler                          0x08000277   Thumb Code     0  startup_stm32f40_41xxx.o(.text)
    TIM6_DAC_IRQHandler                      0x08000277   Thumb Code     0  startup_stm32f40_41xxx.o(.text)
    TIM7_IRQHandler                          0x08000277   Thumb Code     0  startup_stm32f40_41xxx.o(.text)
    TIM8_BRK_TIM12_IRQHandler                0x08000277   Thumb Code     0  startup_stm32f40_41xxx.o(.text)
    TIM8_CC_IRQHandler                       0x08000277   Thumb Code     0  startup_stm32f40_41xxx.o(.text)
    TIM8_TRG_COM_TIM14_IRQHandler            0x08000277   Thumb Code     0  startup_stm32f40_41xxx.o(.text)
    TIM8_UP_TIM13_IRQHandler                 0x08000277   Thumb Code     0  startup_stm32f40_41xxx.o(.text)
    UART4_IRQHandler                         0x08000277   Thumb Code     0  startup_stm32f40_41xxx.o(.text)
    UART5_IRQHandler                         0x08000277   Thumb Code     0  startup_stm32f40_41xxx.o(.text)
    USART1_IRQHandler                        0x08000277   Thumb Code     0  startup_stm32f40_41xxx.o(.text)
    USART2_IRQHandler                        0x08000277   Thumb Code     0  startup_stm32f40_41xxx.o(.text)
    USART3_IRQHandler                        0x08000277   Thumb Code     0  startup_stm32f40_41xxx.o(.text)
    USART6_IRQHandler                        0x08000277   Thumb Code     0  startup_stm32f40_41xxx.o(.text)
    WWDG_IRQHandler                          0x08000277   Thumb Code     0  startup_stm32f40_41xxx.o(.text)
    arm_cos_f32                              0x08000281   Thumb Code   108  arm_cos_f32.o(.text)
    arm_sin_f32                              0x080002f9   Thumb Code   104  arm_sin_f32.o(.text)
    arm_sin_cos_f32                          0x0800036d   Thumb Code   242  arm_sin_cos_f32.o(.text)
    __aeabi_memcpy                           0x08000471   Thumb Code    36  memcpya.o(.text)
    __aeabi_memcpy4                          0x08000471   Thumb Code     0  memcpya.o(.text)
    __aeabi_memcpy8                          0x08000471   Thumb Code     0  memcpya.o(.text)
    __aeabi_memset                           0x08000495   Thumb Code    14  memseta.o(.text)
    __aeabi_memset4                          0x08000495   Thumb Code     0  memseta.o(.text)
    __aeabi_memset8                          0x08000495   Thumb Code     0  memseta.o(.text)
    __aeabi_memclr                           0x080004a3   Thumb Code     4  memseta.o(.text)
    __aeabi_memclr4                          0x080004a3   Thumb Code     0  memseta.o(.text)
    __aeabi_memclr8                          0x080004a3   Thumb Code     0  memseta.o(.text)
    _memset$wrapper                          0x080004a7   Thumb Code    18  memseta.o(.text)
    __aeabi_dadd                             0x080004b9   Thumb Code   322  dadd.o(.text)
    __aeabi_dsub                             0x080005fb   Thumb Code     6  dadd.o(.text)
    __aeabi_drsub                            0x08000601   Thumb Code     6  dadd.o(.text)
    __aeabi_dmul                             0x08000607   Thumb Code   228  dmul.o(.text)
    __aeabi_i2d                              0x080006eb   Thumb Code    34  dflti.o(.text)
    __aeabi_f2d                              0x0800070d   Thumb Code    38  f2d.o(.text)
    __aeabi_d2f                              0x08000733   Thumb Code    56  d2f.o(.text)
    __aeabi_llsl                             0x0800076b   Thumb Code    30  llshl.o(.text)
    _ll_shift_l                              0x0800076b   Thumb Code     0  llshl.o(.text)
    __aeabi_lasr                             0x08000789   Thumb Code    36  llsshr.o(.text)
    _ll_sshift_r                             0x08000789   Thumb Code     0  llsshr.o(.text)
    __I$use$fp                               0x080007ad   Thumb Code     0  iusefp.o(.text)
    _float_round                             0x080007ad   Thumb Code    18  fepilogue.o(.text)
    _float_epilogue                          0x080007bf   Thumb Code    92  fepilogue.o(.text)
    _double_round                            0x0800081b   Thumb Code    30  depilogue.o(.text)
    _double_epilogue                         0x08000839   Thumb Code   156  depilogue.o(.text)
    __scatterload                            0x080008d5   Thumb Code    28  init.o(.text)
    __scatterload_rt2                        0x080008d5   Thumb Code     0  init.o(.text)
    __aeabi_llsr                             0x080008f9   Thumb Code    32  llushr.o(.text)
    _ll_ushift_r                             0x080008f9   Thumb Code     0  llushr.o(.text)
    __decompress                             0x08000919   Thumb Code     0  __dczerorl2.o(.text)
    __decompress1                            0x08000919   Thumb Code    86  __dczerorl2.o(.text)
    AHRS_asinf                               0x0800096f   Thumb Code     4  ahrs_middleware.o(i.AHRS_asinf)
    AHRS_atan2f                              0x08000973   Thumb Code     4  ahrs_middleware.o(i.AHRS_atan2f)
    AHRS_cosf                                0x08000977   Thumb Code     4  ahrs_middleware.o(i.AHRS_cosf)
    AHRS_get_height                          0x08000995   Thumb Code    14  ahrs_middleware.o(i.AHRS_get_height)
    AHRS_get_latitude                        0x080009a9   Thumb Code    14  ahrs_middleware.o(i.AHRS_get_latitude)
    AHRS_init                                0x080009b9   Thumb Code   626  ahrs.o(i.AHRS_init)
    AHRS_invSqrt                             0x08000c55   Thumb Code    34  ahrs_middleware.o(i.AHRS_invSqrt)
    AHRS_sinf                                0x08000c77   Thumb Code     4  ahrs_middleware.o(i.AHRS_sinf)
    AHRS_update                              0x08000c7b   Thumb Code   314  ahrs.o(i.AHRS_update)
    BMI088_delay_ms                          0x08000db5   Thumb Code    68  bsp_delay.o(i.BMI088_delay_ms)
    BMI088_delay_us                          0x08000df9   Thumb Code    48  bsp_delay.o(i.BMI088_delay_us)
    BMI088_init                              0x08000e29   Thumb Code   418  bsp_gyro_accal.o(i.BMI088_init)
    BMI088_read                              0x08000fd9   Thumb Code   408  bsp_gyro_accal.o(i.BMI088_read)
    BusFault_Handler                         0x0800118d   Thumb Code     2  stm32f4xx_it.o(i.BusFault_Handler)
    CAN1_RX0_IRQHandler                      0x08001191   Thumb Code   122  remote_task.o(i.CAN1_RX0_IRQHandler)
    CAN1_init                                0x08001219   Thumb Code   212  bsp_can.o(i.CAN1_init)
    CAN2_RX0_IRQHandler                      0x080012f5   Thumb Code    72  bsp_motor.o(i.CAN2_RX0_IRQHandler)
    CAN2_init                                0x08001349   Thumb Code   216  bsp_can.o(i.CAN2_init)
    CAN_ClearITPendingBit                    0x08001429   Thumb Code   152  stm32f4xx_can.o(i.CAN_ClearITPendingBit)
    CAN_FilterInit                           0x080014c5   Thumb Code   218  stm32f4xx_can.o(i.CAN_FilterInit)
    CAN_GetITStatus                          0x080015b5   Thumb Code   268  stm32f4xx_can.o(i.CAN_GetITStatus)
    CAN_ITConfig                             0x080016c5   Thumb Code    16  stm32f4xx_can.o(i.CAN_ITConfig)
    CAN_Init                                 0x080016d5   Thumb Code   244  stm32f4xx_can.o(i.CAN_Init)
    CAN_Receive                              0x080017c9   Thumb Code   180  stm32f4xx_can.o(i.CAN_Receive)
    CAN_Transmit                             0x0800187d   Thumb Code   194  stm32f4xx_can.o(i.CAN_Transmit)
    CAN_TransmitStatus                       0x08001941   Thumb Code   106  stm32f4xx_can.o(i.CAN_TransmitStatus)
    Chassis_task                             0x080019c1   Thumb Code   866  chassis_task.o(i.Chassis_task)
    DMA_Init                                 0x08001d6d   Thumb Code   116  stm32f4xx_dma.o(i.DMA_Init)
    DebugMon_Handler                         0x08001de5   Thumb Code     2  stm32f4xx_it.o(i.DebugMon_Handler)
    FZ_math_StepToSlope_cale                 0x08001de7   Thumb Code   104  z_math.o(i.FZ_math_StepToSlope_cale)
    FZ_math_absolute                         0x08001e51   Thumb Code    44  z_math.o(i.FZ_math_absolute)
    FZ_math_limt                             0x08001e81   Thumb Code    34  z_math.o(i.FZ_math_limt)
    GPIO_Init                                0x08001ea5   Thumb Code   154  stm32f4xx_gpio.o(i.GPIO_Init)
    GPIO_PinAFConfig                         0x08001f3f   Thumb Code    34  stm32f4xx_gpio.o(i.GPIO_PinAFConfig)
    GPIO_ResetBits                           0x08001f61   Thumb Code     4  stm32f4xx_gpio.o(i.GPIO_ResetBits)
    GPIO_SetBits                             0x08001f65   Thumb Code     4  stm32f4xx_gpio.o(i.GPIO_SetBits)
    GYRO_task                                0x08001f69   Thumb Code   662  gyro_task.o(i.GYRO_task)
    HardFault_Handler                        0x08002255   Thumb Code     2  stm32f4xx_it.o(i.HardFault_Handler)
    LED_init                                 0x08002259   Thumb Code   106  bsp_led.o(i.LED_init)
    MemManage_Handler                        0x080022c9   Thumb Code     2  stm32f4xx_it.o(i.MemManage_Handler)
    NMI_Handler                              0x080022cb   Thumb Code     2  stm32f4xx_it.o(i.NMI_Handler)
    NVIC_Init                                0x080022cd   Thumb Code   106  misc.o(i.NVIC_Init)
    NVIC_PriorityGroupConfig                 0x0800233d   Thumb Code    14  misc.o(i.NVIC_PriorityGroupConfig)
    PID_Init                                 0x08002351   Thumb Code    40  pid.o(i.PID_Init)
    PID_cale                                 0x08002379   Thumb Code   178  pid.o(i.PID_cale)
    RCC_AHB1PeriphClockCmd                   0x0800242d   Thumb Code    18  stm32f4xx_rcc.o(i.RCC_AHB1PeriphClockCmd)
    RCC_APB1PeriphClockCmd                   0x08002445   Thumb Code    18  stm32f4xx_rcc.o(i.RCC_APB1PeriphClockCmd)
    RCC_APB2PeriphClockCmd                   0x0800245d   Thumb Code    18  stm32f4xx_rcc.o(i.RCC_APB2PeriphClockCmd)
    RCC_GetClocksFreq                        0x08002475   Thumb Code   150  stm32f4xx_rcc.o(i.RCC_GetClocksFreq)
    RM_motor_send                            0x08002521   Thumb Code   102  rm_motor.o(i.RM_motor_send)
    SPI_I2S_GetFlagStatus                    0x08002587   Thumb Code    14  stm32f4xx_spi.o(i.SPI_I2S_GetFlagStatus)
    SPI_I2S_ReceiveData                      0x08002595   Thumb Code     4  stm32f4xx_spi.o(i.SPI_I2S_ReceiveData)
    SPI_I2S_SendData                         0x08002599   Thumb Code     4  stm32f4xx_spi.o(i.SPI_I2S_SendData)
    SPI_ReadWriteByte                        0x0800259d   Thumb Code    48  bsp_spi.o(i.SPI_ReadWriteByte)
    SysTick_Handler                          0x080025cd   Thumb Code    38  port.o(i.SysTick_Handler)
    SystemInit                               0x080025f9   Thumb Code   224  system_stm32f4xx.o(i.SystemInit)
    TIM3_IRQHandler                          0x080026fd   Thumb Code    30  bsp_tim.o(i.TIM3_IRQHandler)
    TIM5_IRQHandler                          0x08002721   Thumb Code   124  bsp_tim.o(i.TIM5_IRQHandler)
    TIM_ClearITPendingBit                    0x080027a5   Thumb Code     6  stm32f4xx_tim.o(i.TIM_ClearITPendingBit)
    TIM_Cmd                                  0x080027ab   Thumb Code    18  stm32f4xx_tim.o(i.TIM_Cmd)
    TIM_GetCapture1                          0x080027bd   Thumb Code     4  stm32f4xx_tim.o(i.TIM_GetCapture1)
    TIM_GetITStatus                          0x080027c1   Thumb Code    22  stm32f4xx_tim.o(i.TIM_GetITStatus)
    TIM_OC1PolarityConfig                    0x080027d7   Thumb Code    12  stm32f4xx_tim.o(i.TIM_OC1PolarityConfig)
    TIM_SetCompare1                          0x080027e3   Thumb Code     4  stm32f4xx_tim.o(i.TIM_SetCompare1)
    TIM_SetCompare3                          0x080027e7   Thumb Code     4  stm32f4xx_tim.o(i.TIM_SetCompare3)
    TIM_SetCounter                           0x080027eb   Thumb Code     4  stm32f4xx_tim.o(i.TIM_SetCounter)
    USART1_Init                              0x080027f1   Thumb Code   284  bsp_usart.o(i.USART1_Init)
    USART_Cmd                                0x08002929   Thumb Code    18  stm32f4xx_usart.o(i.USART_Cmd)
    USART_DMACmd                             0x0800293b   Thumb Code    16  stm32f4xx_usart.o(i.USART_DMACmd)
    USART_ITConfig                           0x0800294b   Thumb Code    48  stm32f4xx_usart.o(i.USART_ITConfig)
    USART_Init                               0x0800297d   Thumb Code   180  stm32f4xx_usart.o(i.USART_Init)
    UsageFault_Handler                       0x08002a35   Thumb Code     2  stm32f4xx_it.o(i.UsageFault_Handler)
    VLEDBlink_ofdetection_update             0x08002a39   Thumb Code     8  led_blink_task.o(i.VLEDBlink_ofdetection_update)
    __ARM_fpclassifyf                        0x08002a45   Thumb Code    38  fpclassifyf.o(i.__ARM_fpclassifyf)
    __hardfp_asinf                           0x08002a6d   Thumb Code   258  asinf.o(i.__hardfp_asinf)
    __hardfp_atan2f                          0x08002b99   Thumb Code   502  atan2f.o(i.__hardfp_atan2f)
    __hardfp_sqrtf                           0x08002de9   Thumb Code    58  sqrtf_full.o(i.__hardfp_sqrtf)
    __mathlib_flt_infnan                     0x08002e23   Thumb Code     6  funder.o(i.__mathlib_flt_infnan)
    __mathlib_flt_infnan2                    0x08002e29   Thumb Code     6  funder.o(i.__mathlib_flt_infnan2)
    __mathlib_flt_invalid                    0x08002e31   Thumb Code    10  funder.o(i.__mathlib_flt_invalid)
    __mathlib_flt_underflow                  0x08002e41   Thumb Code    10  funder.o(i.__mathlib_flt_underflow)
    __scatterload_copy                       0x08002e51   Thumb Code    14  handlers.o(i.__scatterload_copy)
    __scatterload_null                       0x08002e5f   Thumb Code     2  handlers.o(i.__scatterload_null)
    __scatterload_zeroinit                   0x08002e61   Thumb Code    14  handlers.o(i.__scatterload_zeroinit)
    __set_errno                              0x08002e71   Thumb Code     6  errno.o(i.__set_errno)
    bmi088_accel_self_test                   0x08003345   Thumb Code   996  bsp_gyro_accal.o(i.bmi088_accel_self_test)
    bmi088_gyro_init                         0x08003735   Thumb Code   346  bsp_gyro_accal.o(i.bmi088_gyro_init)
    bmi088_gyro_self_test                    0x0800389d   Thumb Code   320  bsp_gyro_accal.o(i.bmi088_gyro_self_test)
    buzzer_task                              0x080039e5   Thumb Code    68  buzzer_task.o(i.buzzer_task)
    chassis_follow_chassis_solve             0x08003a31   Thumb Code    82  chassis_behave.o(i.chassis_follow_chassis_solve)
    chassis_follow_gym_solve                 0x08003a85   Thumb Code   158  chassis_behave.o(i.chassis_follow_gym_solve)
    chassis_revolve_solve                    0x08003b29   Thumb Code   132  chassis_behave.o(i.chassis_revolve_solve)
    chassis_zero_solve                       0x08003bad   Thumb Code     8  chassis_behave.o(i.chassis_zero_solve)
    create_task                              0x08003bb5   Thumb Code    86  make_task.o(i.create_task)
    get_angle                                0x08003c51   Thumb Code   232  ahrs.o(i.get_angle)
    get_angle_p                              0x08003d39   Thumb Code     4  remote_task.o(i.get_angle_p)
    get_speed_set_p                          0x08003d41   Thumb Code     4  remote_task.o(i.get_speed_set_p)
    led_task                                 0x08003f25   Thumb Code   308  led_blink_task.o(i.led_task)
    main                                     0x08004069   Thumb Code    34  main.o(i.main)
    motor_msg_decode_3508                    0x0800408d   Thumb Code    70  rm_motor.o(i.motor_msg_decode_3508)
    pvPortMalloc                             0x080046a5   Thumb Code   346  heap_4.o(i.pvPortMalloc)
    pxPortInitialiseStack                    0x0800480d   Thumb Code    38  port.o(i.pxPortInitialiseStack)
    sqrtf                                    0x080048bd   Thumb Code    62  sqrtf_full.o(i.sqrtf)
    uxListRemove                             0x08004975   Thumb Code    38  list.o(i.uxListRemove)
    vListInitialise                          0x0800499b   Thumb Code    22  list.o(i.vListInitialise)
    vListInitialiseItem                      0x080049b1   Thumb Code     6  list.o(i.vListInitialiseItem)
    vListInsert                              0x080049b9   Thumb Code    58  list.o(i.vListInsert)
    vPortEnterCritical                       0x080049f5   Thumb Code    56  port.o(i.vPortEnterCritical)
    vPortExitCritical                        0x08004a35   Thumb Code    38  port.o(i.vPortExitCritical)
    vPortFree                                0x08004a61   Thumb Code   162  heap_4.o(i.vPortFree)
    vPortSetupTimerInterrupt                 0x08004b09   Thumb Code    32  port.o(i.vPortSetupTimerInterrupt)
    vQueueAddToRegistry                      0x08004b2d   Thumb Code    84  queue.o(i.vQueueAddToRegistry)
    vQueueWaitForMessageRestricted           0x08004b85   Thumb Code    74  queue.o(i.vQueueWaitForMessageRestricted)
    vTaskDelay                               0x08004bd1   Thumb Code    66  tasks.o(i.vTaskDelay)
    vTaskInternalSetTimeOutState             0x08004c1d   Thumb Code    12  tasks.o(i.vTaskInternalSetTimeOutState)
    vTaskMissedYield                         0x08004c2d   Thumb Code     8  tasks.o(i.vTaskMissedYield)
    vTaskPlaceOnEventList                    0x08004c39   Thumb Code    46  tasks.o(i.vTaskPlaceOnEventList)
    vTaskPlaceOnEventListRestricted          0x08004c6d   Thumb Code    78  tasks.o(i.vTaskPlaceOnEventListRestricted)
    vTaskStartScheduler                      0x08004cc1   Thumb Code    98  tasks.o(i.vTaskStartScheduler)
    vTaskSuspendAll                          0x08004d39   Thumb Code    10  tasks.o(i.vTaskSuspendAll)
    vTaskSwitchContext                       0x08004d49   Thumb Code    84  tasks.o(i.vTaskSwitchContext)
    xPortStartScheduler                      0x08004da5   Thumb Code   232  port.o(i.xPortStartScheduler)
    xQueueGenericCreate                      0x08004ea9   Thumb Code   176  queue.o(i.xQueueGenericCreate)
    xQueueReceive                            0x08004f59   Thumb Code   340  queue.o(i.xQueueReceive)
    xTaskCheckForTimeOut                     0x080050b1   Thumb Code   130  tasks.o(i.xTaskCheckForTimeOut)
    xTaskCreate                              0x08005139   Thumb Code   404  tasks.o(i.xTaskCreate)
    xTaskGetSchedulerState                   0x080052ed   Thumb Code    24  tasks.o(i.xTaskGetSchedulerState)
    xTaskGetTickCount                        0x08005309   Thumb Code     6  tasks.o(i.xTaskGetTickCount)
    xTaskIncrementTick                       0x08005315   Thumb Code   382  tasks.o(i.xTaskIncrementTick)
    xTaskRemoveFromEventList                 0x0800549d   Thumb Code   228  tasks.o(i.xTaskRemoveFromEventList)
    xTaskResumeAll                           0x0800558d   Thumb Code   318  tasks.o(i.xTaskResumeAll)
    xTimerCreateTimerTask                    0x080056dd   Thumb Code   110  timers.o(i.xTimerCreateTimerTask)
    sinTable_f32                             0x0800579c   Data        2052  arm_common_tables.o(.constdata)
    Region$$Table$$Base                      0x08005fa0   Number         0  anon$$obj.o(Region$$Table)
    Region$$Table$$Limit                     0x08005fc0   Number         0  anon$$obj.o(Region$$Table)
    SystemCoreClock                          0x20000000   Data           4  system_stm32f4xx.o(.data)
    AHBPrescTable                            0x20000004   Data          16  system_stm32f4xx.o(.data)
    Now_Time                                 0x20000024   Data           1  led_blink_task.o(.data)
    LED_Blink_outime_num                     0x20000025   Data           1  led_blink_task.o(.data)
    LED_state_dis                            0x20000026   Data           5  led_blink_task.o(.data)
    remote_angle                             0x2000002b   Data           8  remote_task.o(.data)
    Remote_speed                             0x20000033   Data           8  remote_task.o(.data)
    mag_scale_factor                         0x2000003c   Data          36  gyro_task.o(.data)
    gyro_scale_factor                        0x20000060   Data          36  gyro_task.o(.data)
    accel_scale_factor                       0x20000084   Data          36  gyro_task.o(.data)
    usart1_dma_tx_buff                       0x200000a8   Data           1  bsp_usart.o(.data)
    tim5_ic_state                            0x200000ac   Data           1  bsp_tim.o(.data)
    tim5_ic_time                             0x200000b0   Data           4  bsp_tim.o(.data)
    buf                                      0x200000b4   Data           8  bsp_gyro_accal.o(.data)
    pxCurrentTCB                             0x200000e0   Data           4  tasks.o(.data)
    uxTopUsedPriority                        0x20000110   Data           4  tasks.o(.data)
    Main_chassis                             0x20000184   Data         552  chassis_task.o(.bss)
    INS_angle                                0x200003ac   Data          12  gyro_task.o(.bss)
    last_INS_angle                           0x200003b8   Data          12  gyro_task.o(.bss)
    ins_qvan                                 0x200003c4   Data          12  gyro_task.o(.bss)
    gyro_temp_PID                            0x20000428   Data          68  gyro_task.o(.bss)
    bmi088_real_data                         0x2000046c   Data          36  gyro_task.o(.bss)
    ist8310_real_data                        0x20000490   Data          16  gyro_task.o(.bss)
    gyro_offset                              0x200004a0   Data          12  gyro_task.o(.bss)
    accel_offset                             0x200004ac   Data          12  gyro_task.o(.bss)
    mag_offset                               0x200004b8   Data          12  gyro_task.o(.bss)
    usart1_dma_rx_buff                       0x200004c4   Data          34  bsp_usart.o(.bss)
    xQueueRegistry                           0x200004e8   Data          64  queue.o(.bss)
    __initial_sp                             0x20013618   Data           0  startup_stm32f40_41xxx.o(STACK)



==============================================================================

Memory Map of the image

  Image Entry point : 0x08000189

  Load Region LR_IROM1 (Base: 0x08000000, Size: 0x00006130, Max: 0x00100000, ABSOLUTE, COMPRESSED[0x0000601c])

    Execution Region ER_IROM1 (Exec base: 0x08000000, Load base: 0x08000000, Size: 0x00005fc0, Max: 0x00100000, ABSOLUTE)

    Exec Addr    Load Addr    Size         Type   Attr      Idx    E Section Name        Object

    0x08000000   0x08000000   0x00000188   Data   RO         2967    RESET               startup_stm32f40_41xxx.o
    0x08000188   0x08000188   0x00000000   Code   RO         5031  * .ARM.Collect$$$$00000000  mc_w.l(entry.o)
    0x08000188   0x08000188   0x00000004   Code   RO         5095    .ARM.Collect$$$$00000001  mc_w.l(entry2.o)
    0x0800018c   0x0800018c   0x00000004   Code   RO         5098    .ARM.Collect$$$$00000004  mc_w.l(entry5.o)
    0x08000190   0x08000190   0x00000000   Code   RO         5100    .ARM.Collect$$$$00000008  mc_w.l(entry7b.o)
    0x08000190   0x08000190   0x00000000   Code   RO         5102    .ARM.Collect$$$$0000000A  mc_w.l(entry8b.o)
    0x08000190   0x08000190   0x00000008   Code   RO         5103    .ARM.Collect$$$$0000000B  mc_w.l(entry9a.o)
    0x08000198   0x08000198   0x00000000   Code   RO         5105    .ARM.Collect$$$$0000000D  mc_w.l(entry10a.o)
    0x08000198   0x08000198   0x00000000   Code   RO         5107    .ARM.Collect$$$$0000000F  mc_w.l(entry11a.o)
    0x08000198   0x08000198   0x00000004   Code   RO         5096    .ARM.Collect$$$$00002712  mc_w.l(entry2.o)
    0x0800019c   0x0800019c   0x000000be   Code   RO         4575    .emb_text           port.o
    0x0800025a   0x0800025a   0x00000002   PAD
    0x0800025c   0x0800025c   0x00000024   Code   RO         2968    .text               startup_stm32f40_41xxx.o
    0x08000280   0x08000280   0x00000078   Code   RO         4690    .text               arm_cortexM4lf_math.lib(arm_cos_f32.o)
    0x080002f8   0x080002f8   0x00000074   Code   RO         4743    .text               arm_cortexM4lf_math.lib(arm_sin_f32.o)
    0x0800036c   0x0800036c   0x00000104   Code   RO         4767    .text               arm_cortexM4lf_math.lib(arm_sin_cos_f32.o)
    0x08000470   0x08000470   0x00000024   Code   RO         5034    .text               mc_w.l(memcpya.o)
    0x08000494   0x08000494   0x00000024   Code   RO         5036    .text               mc_w.l(memseta.o)
    0x080004b8   0x080004b8   0x0000014e   Code   RO         5040    .text               mf_w.l(dadd.o)
    0x08000606   0x08000606   0x000000e4   Code   RO         5042    .text               mf_w.l(dmul.o)
    0x080006ea   0x080006ea   0x00000022   Code   RO         5044    .text               mf_w.l(dflti.o)
    0x0800070c   0x0800070c   0x00000026   Code   RO         5048    .text               mf_w.l(f2d.o)
    0x08000732   0x08000732   0x00000038   Code   RO         5050    .text               mf_w.l(d2f.o)
    0x0800076a   0x0800076a   0x0000001e   Code   RO         5109    .text               mc_w.l(llshl.o)
    0x08000788   0x08000788   0x00000024   Code   RO         5111    .text               mc_w.l(llsshr.o)
    0x080007ac   0x080007ac   0x00000000   Code   RO         5120    .text               mc_w.l(iusefp.o)
    0x080007ac   0x080007ac   0x0000006e   Code   RO         5121    .text               mf_w.l(fepilogue.o)
    0x0800081a   0x0800081a   0x000000ba   Code   RO         5123    .text               mf_w.l(depilogue.o)
    0x080008d4   0x080008d4   0x00000024   Code   RO         5129    .text               mc_w.l(init.o)
    0x080008f8   0x080008f8   0x00000020   Code   RO         5131    .text               mc_w.l(llushr.o)
    0x08000918   0x08000918   0x00000056   Code   RO         5141    .text               mc_w.l(__dczerorl2.o)
    0x0800096e   0x0800096e   0x00000004   Code   RO         3659    i.AHRS_asinf        ahrs_middleware.o
    0x08000972   0x08000972   0x00000004   Code   RO         3660    i.AHRS_atan2f       ahrs_middleware.o
    0x08000976   0x08000976   0x00000004   Code   RO         3661    i.AHRS_cosf         ahrs_middleware.o
    0x0800097a   0x0800097a   0x0000001a   Code   RO         4788    i.AHRS_fabs         AHRS.lib(ahrs.o)
    0x08000994   0x08000994   0x00000014   Code   RO         3662    i.AHRS_get_height   ahrs_middleware.o
    0x080009a8   0x080009a8   0x0000000e   Code   RO         3663    i.AHRS_get_latitude  ahrs_middleware.o
    0x080009b6   0x080009b6   0x00000002   PAD
    0x080009b8   0x080009b8   0x0000029c   Code   RO         4789    i.AHRS_init         AHRS.lib(ahrs.o)
    0x08000c54   0x08000c54   0x00000022   Code   RO         3664    i.AHRS_invSqrt      ahrs_middleware.o
    0x08000c76   0x08000c76   0x00000004   Code   RO         3665    i.AHRS_sinf         ahrs_middleware.o
    0x08000c7a   0x08000c7a   0x0000013a   Code   RO         4790    i.AHRS_update       AHRS.lib(ahrs.o)
    0x08000db4   0x08000db4   0x00000044   Code   RO         3289    i.BMI088_delay_ms   bsp_delay.o
    0x08000df8   0x08000df8   0x00000030   Code   RO         3290    i.BMI088_delay_us   bsp_delay.o
    0x08000e28   0x08000e28   0x000001b0   Code   RO         3542    i.BMI088_init       bsp_gyro_accal.o
    0x08000fd8   0x08000fd8   0x000001b4   Code   RO         3543    i.BMI088_read       bsp_gyro_accal.o
    0x0800118c   0x0800118c   0x00000002   Code   RO          181    i.BusFault_Handler  stm32f4xx_it.o
    0x0800118e   0x0800118e   0x00000002   PAD
    0x08001190   0x08001190   0x00000088   Code   RO         3114    i.CAN1_RX0_IRQHandler  remote_task.o
    0x08001218   0x08001218   0x000000dc   Code   RO         3460    i.CAN1_init         bsp_can.o
    0x080012f4   0x080012f4   0x00000054   Code   RO         3486    i.CAN2_RX0_IRQHandler  bsp_motor.o
    0x08001348   0x08001348   0x000000e0   Code   RO         3461    i.CAN2_init         bsp_can.o
    0x08001428   0x08001428   0x0000009c   Code   RO         2587    i.CAN_ClearITPendingBit  stm32f4xx_can.o
    0x080014c4   0x080014c4   0x000000f0   Code   RO         2591    i.CAN_FilterInit    stm32f4xx_can.o
    0x080015b4   0x080015b4   0x00000110   Code   RO         2593    i.CAN_GetITStatus   stm32f4xx_can.o
    0x080016c4   0x080016c4   0x00000010   Code   RO         2597    i.CAN_ITConfig      stm32f4xx_can.o
    0x080016d4   0x080016d4   0x000000f4   Code   RO         2598    i.CAN_Init          stm32f4xx_can.o
    0x080017c8   0x080017c8   0x000000b4   Code   RO         2601    i.CAN_Receive       stm32f4xx_can.o
    0x0800187c   0x0800187c   0x000000c2   Code   RO         2606    i.CAN_Transmit      stm32f4xx_can.o
    0x0800193e   0x0800193e   0x00000002   PAD
    0x08001940   0x08001940   0x0000007c   Code   RO         2607    i.CAN_TransmitStatus  stm32f4xx_can.o
    0x080019bc   0x080019bc   0x00000004   PAD
    0x080019c0   0x080019c0   0x000003ac   Code   RO         3064    i.Chassis_task      chassis_task.o
    0x08001d6c   0x08001d6c   0x00000078   Code   RO         2024    i.DMA_Init          stm32f4xx_dma.o
    0x08001de4   0x08001de4   0x00000002   Code   RO          182    i.DebugMon_Handler  stm32f4xx_it.o
    0x08001de6   0x08001de6   0x00000068   Code   RO         3614    i.FZ_math_StepToSlope_cale  z_math.o
    0x08001e4e   0x08001e4e   0x00000002   PAD
    0x08001e50   0x08001e50   0x00000030   Code   RO         3615    i.FZ_math_absolute  z_math.o
    0x08001e80   0x08001e80   0x00000022   Code   RO         3617    i.FZ_math_limt      z_math.o
    0x08001ea2   0x08001ea2   0x00000002   PAD
    0x08001ea4   0x08001ea4   0x0000009a   Code   RO          494    i.GPIO_Init         stm32f4xx_gpio.o
    0x08001f3e   0x08001f3e   0x00000022   Code   RO          495    i.GPIO_PinAFConfig  stm32f4xx_gpio.o
    0x08001f60   0x08001f60   0x00000004   Code   RO          501    i.GPIO_ResetBits    stm32f4xx_gpio.o
    0x08001f64   0x08001f64   0x00000004   Code   RO          502    i.GPIO_SetBits      stm32f4xx_gpio.o
    0x08001f68   0x08001f68   0x000002ec   Code   RO         3207    i.GYRO_task         gyro_task.o
    0x08002254   0x08002254   0x00000002   Code   RO          183    i.HardFault_Handler  stm32f4xx_it.o
    0x08002256   0x08002256   0x00000002   PAD
    0x08002258   0x08002258   0x00000070   Code   RO         3269    i.LED_init          bsp_led.o
    0x080022c8   0x080022c8   0x00000002   Code   RO          184    i.MemManage_Handler  stm32f4xx_it.o
    0x080022ca   0x080022ca   0x00000002   Code   RO          185    i.NMI_Handler       stm32f4xx_it.o
    0x080022cc   0x080022cc   0x00000070   Code   RO          348    i.NVIC_Init         misc.o
    0x0800233c   0x0800233c   0x00000014   Code   RO          349    i.NVIC_PriorityGroupConfig  misc.o
    0x08002350   0x08002350   0x00000028   Code   RO         3590    i.PID_Init          pid.o
    0x08002378   0x08002378   0x000000b2   Code   RO         3591    i.PID_cale          pid.o
    0x0800242a   0x0800242a   0x00000002   PAD
    0x0800242c   0x0800242c   0x00000018   Code   RO          591    i.RCC_AHB1PeriphClockCmd  stm32f4xx_rcc.o
    0x08002444   0x08002444   0x00000018   Code   RO          600    i.RCC_APB1PeriphClockCmd  stm32f4xx_rcc.o
    0x0800245c   0x0800245c   0x00000018   Code   RO          603    i.RCC_APB2PeriphClockCmd  stm32f4xx_rcc.o
    0x08002474   0x08002474   0x000000ac   Code   RO          612    i.RCC_GetClocksFreq  stm32f4xx_rcc.o
    0x08002520   0x08002520   0x00000066   Code   RO         4654    i.RM_motor_send     rm_motor.o
    0x08002586   0x08002586   0x0000000e   Code   RO         2152    i.SPI_I2S_GetFlagStatus  stm32f4xx_spi.o
    0x08002594   0x08002594   0x00000004   Code   RO         2155    i.SPI_I2S_ReceiveData  stm32f4xx_spi.o
    0x08002598   0x08002598   0x00000004   Code   RO         2156    i.SPI_I2S_SendData  stm32f4xx_spi.o
    0x0800259c   0x0800259c   0x00000030   Code   RO         3508    i.SPI_ReadWriteByte  bsp_spi.o
    0x080025cc   0x080025cc   0x0000002c   Code   RO         4576    i.SysTick_Handler   port.o
    0x080025f8   0x080025f8   0x00000104   Code   RO          235    i.SystemInit        system_stm32f4xx.o
    0x080026fc   0x080026fc   0x00000024   Code   RO         3378    i.TIM3_IRQHandler   bsp_tim.o
    0x08002720   0x08002720   0x00000084   Code   RO         3380    i.TIM5_IRQHandler   bsp_tim.o
    0x080027a4   0x080027a4   0x00000006   Code   RO         1238    i.TIM_ClearITPendingBit  stm32f4xx_tim.o
    0x080027aa   0x080027aa   0x00000012   Code   RO         1243    i.TIM_Cmd           stm32f4xx_tim.o
    0x080027bc   0x080027bc   0x00000004   Code   RO         1258    i.TIM_GetCapture1   stm32f4xx_tim.o
    0x080027c0   0x080027c0   0x00000016   Code   RO         1264    i.TIM_GetITStatus   stm32f4xx_tim.o
    0x080027d6   0x080027d6   0x0000000c   Code   RO         1274    i.TIM_OC1PolarityConfig  stm32f4xx_tim.o
    0x080027e2   0x080027e2   0x00000004   Code   RO         1305    i.TIM_SetCompare1   stm32f4xx_tim.o
    0x080027e6   0x080027e6   0x00000004   Code   RO         1307    i.TIM_SetCompare3   stm32f4xx_tim.o
    0x080027ea   0x080027ea   0x00000004   Code   RO         1309    i.TIM_SetCounter    stm32f4xx_tim.o
    0x080027ee   0x080027ee   0x00000002   PAD
    0x080027f0   0x080027f0   0x00000138   Code   RO         3338    i.USART1_Init       bsp_usart.o
    0x08002928   0x08002928   0x00000012   Code   RO          985    i.USART_Cmd         stm32f4xx_usart.o
    0x0800293a   0x0800293a   0x00000010   Code   RO          986    i.USART_DMACmd      stm32f4xx_usart.o
    0x0800294a   0x0800294a   0x00000030   Code   RO          991    i.USART_ITConfig    stm32f4xx_usart.o
    0x0800297a   0x0800297a   0x00000002   PAD
    0x0800297c   0x0800297c   0x000000b8   Code   RO          992    i.USART_Init        stm32f4xx_usart.o
    0x08002a34   0x08002a34   0x00000002   Code   RO          186    i.UsageFault_Handler  stm32f4xx_it.o
    0x08002a36   0x08002a36   0x00000002   PAD
    0x08002a38   0x08002a38   0x0000000c   Code   RO         2974    i.VLEDBlink_ofdetection_update  led_blink_task.o
    0x08002a44   0x08002a44   0x00000026   Code   RO         5074    i.__ARM_fpclassifyf  m_wm.l(fpclassifyf.o)
    0x08002a6a   0x08002a6a   0x00000002   PAD
    0x08002a6c   0x08002a6c   0x0000012c   Code   RO         4969    i.__hardfp_asinf    m_wm.l(asinf.o)
    0x08002b98   0x08002b98   0x00000250   Code   RO         4995    i.__hardfp_atan2f   m_wm.l(atan2f.o)
    0x08002de8   0x08002de8   0x0000003a   Code   RO         5019    i.__hardfp_sqrtf    m_wm.l(sqrtf_full.o)
    0x08002e22   0x08002e22   0x00000006   Code   RO         5077    i.__mathlib_flt_infnan  m_wm.l(funder.o)
    0x08002e28   0x08002e28   0x00000006   Code   RO         5078    i.__mathlib_flt_infnan2  m_wm.l(funder.o)
    0x08002e2e   0x08002e2e   0x00000002   PAD
    0x08002e30   0x08002e30   0x00000010   Code   RO         5079    i.__mathlib_flt_invalid  m_wm.l(funder.o)
    0x08002e40   0x08002e40   0x00000010   Code   RO         5082    i.__mathlib_flt_underflow  m_wm.l(funder.o)
    0x08002e50   0x08002e50   0x0000000e   Code   RO         5135    i.__scatterload_copy  mc_w.l(handlers.o)
    0x08002e5e   0x08002e5e   0x00000002   Code   RO         5136    i.__scatterload_null  mc_w.l(handlers.o)
    0x08002e60   0x08002e60   0x0000000e   Code   RO         5137    i.__scatterload_zeroinit  mc_w.l(handlers.o)
    0x08002e6e   0x08002e6e   0x00000002   PAD
    0x08002e70   0x08002e70   0x0000000c   Code   RO         5115    i.__set_errno       mc_w.l(errno.o)
    0x08002e7c   0x08002e7c   0x000001d0   Code   RO         4791    i.accel_comple_filter  AHRS.lib(ahrs.o)
    0x0800304c   0x0800304c   0x0000018c   Code   RO         4792    i.accel_update_kp_ki  AHRS.lib(ahrs.o)
    0x080031d8   0x080031d8   0x0000016c   Code   RO         4793    i.angle_to_quat     AHRS.lib(ahrs.o)
    0x08003344   0x08003344   0x000003f0   Code   RO         3544    i.bmi088_accel_self_test  bsp_gyro_accal.o
    0x08003734   0x08003734   0x00000168   Code   RO         3545    i.bmi088_gyro_init  bsp_gyro_accal.o
    0x0800389c   0x0800389c   0x00000148   Code   RO         3546    i.bmi088_gyro_self_test  bsp_gyro_accal.o
    0x080039e4   0x080039e4   0x0000004c   Code   RO         3037    i.buzzer_task       buzzer_task.o
    0x08003a30   0x08003a30   0x00000052   Code   RO         3163    i.chassis_follow_chassis_solve  chassis_behave.o
    0x08003a82   0x08003a82   0x00000002   PAD
    0x08003a84   0x08003a84   0x000000a4   Code   RO         3165    i.chassis_follow_gym_solve  chassis_behave.o
    0x08003b28   0x08003b28   0x00000084   Code   RO         3166    i.chassis_revolve_solve  chassis_behave.o
    0x08003bac   0x08003bac   0x00000008   Code   RO         3167    i.chassis_zero_solve  chassis_behave.o
    0x08003bb4   0x08003bb4   0x0000009c   Code   RO          266    i.create_task       make_task.o
    0x08003c50   0x08003c50   0x000000e8   Code   RO         4794    i.get_angle         AHRS.lib(ahrs.o)
    0x08003d38   0x08003d38   0x00000008   Code   RO         3115    i.get_angle_p       remote_task.o
    0x08003d40   0x08003d40   0x00000008   Code   RO         3116    i.get_speed_set_p   remote_task.o
    0x08003d48   0x08003d48   0x000001dc   Code   RO         3208    i.imu_cali_slove    gyro_task.o
    0x08003f24   0x08003f24   0x00000144   Code   RO         2975    i.led_task          led_blink_task.o
    0x08004068   0x08004068   0x00000022   Code   RO            3    i.main              main.o
    0x0800408a   0x0800408a   0x00000002   PAD
    0x0800408c   0x0800408c   0x0000004c   Code   RO         4655    i.motor_msg_decode_3508  rm_motor.o
    0x080040d8   0x080040d8   0x00000090   Code   RO         4073    i.prvAddCurrentTaskToDelayedList  tasks.o
    0x08004168   0x08004168   0x00000064   Code   RO         4074    i.prvIdleTask       tasks.o
    0x080041cc   0x080041cc   0x000000a0   Code   RO         4393    i.prvProcessExpiredTimer  timers.o
    0x0800426c   0x0800426c   0x000000d4   Code   RO         4394    i.prvSampleTimeNow  timers.o
    0x08004340   0x08004340   0x0000002c   Code   RO         4577    i.prvTaskExitError  port.o
    0x0800436c   0x0800436c   0x000002cc   Code   RO         4395    i.prvTimerTask      timers.o
    0x08004638   0x08004638   0x0000006c   Code   RO         3893    i.prvUnlockQueue    queue.o
    0x080046a4   0x080046a4   0x00000168   Code   RO         4525    i.pvPortMalloc      heap_4.o
    0x0800480c   0x0800480c   0x0000002c   Code   RO         4578    i.pxPortInitialiseStack  port.o
    0x08004838   0x08004838   0x00000084   Code   RO         4799    i.quat_normalization  AHRS.lib(ahrs.o)
    0x080048bc   0x080048bc   0x0000003e   Code   RO         5021    i.sqrtf             m_wm.l(sqrtf_full.o)
    0x080048fa   0x080048fa   0x0000007a   Code   RO         4800    i.update_w          AHRS.lib(ahrs.o)
    0x08004974   0x08004974   0x00000026   Code   RO         3853    i.uxListRemove      list.o
    0x0800499a   0x0800499a   0x00000016   Code   RO         3854    i.vListInitialise   list.o
    0x080049b0   0x080049b0   0x00000006   Code   RO         3855    i.vListInitialiseItem  list.o
    0x080049b6   0x080049b6   0x00000002   PAD
    0x080049b8   0x080049b8   0x0000003a   Code   RO         3856    i.vListInsert       list.o
    0x080049f2   0x080049f2   0x00000002   PAD
    0x080049f4   0x080049f4   0x00000040   Code   RO         4580    i.vPortEnterCritical  port.o
    0x08004a34   0x08004a34   0x0000002c   Code   RO         4581    i.vPortExitCritical  port.o
    0x08004a60   0x08004a60   0x000000a8   Code   RO         4526    i.vPortFree         heap_4.o
    0x08004b08   0x08004b08   0x00000024   Code   RO         4582    i.vPortSetupTimerInterrupt  port.o
    0x08004b2c   0x08004b2c   0x00000058   Code   RO         3899    i.vQueueAddToRegistry  queue.o
    0x08004b84   0x08004b84   0x0000004a   Code   RO         3903    i.vQueueWaitForMessageRestricted  queue.o
    0x08004bce   0x08004bce   0x00000002   PAD
    0x08004bd0   0x08004bd0   0x0000004c   Code   RO         4085    i.vTaskDelay        tasks.o
    0x08004c1c   0x08004c1c   0x00000010   Code   RO         4090    i.vTaskInternalSetTimeOutState  tasks.o
    0x08004c2c   0x08004c2c   0x0000000c   Code   RO         4091    i.vTaskMissedYield  tasks.o
    0x08004c38   0x08004c38   0x00000034   Code   RO         4092    i.vTaskPlaceOnEventList  tasks.o
    0x08004c6c   0x08004c6c   0x00000054   Code   RO         4093    i.vTaskPlaceOnEventListRestricted  tasks.o
    0x08004cc0   0x08004cc0   0x00000078   Code   RO         4101    i.vTaskStartScheduler  tasks.o
    0x08004d38   0x08004d38   0x00000010   Code   RO         4103    i.vTaskSuspendAll   tasks.o
    0x08004d48   0x08004d48   0x0000005c   Code   RO         4104    i.vTaskSwitchContext  tasks.o
    0x08004da4   0x08004da4   0x00000104   Code   RO         4584    i.xPortStartScheduler  port.o
    0x08004ea8   0x08004ea8   0x000000b0   Code   RO         3906    i.xQueueGenericCreate  queue.o
    0x08004f58   0x08004f58   0x00000158   Code   RO         3916    i.xQueueReceive     queue.o
    0x080050b0   0x080050b0   0x00000088   Code   RO         4106    i.xTaskCheckForTimeOut  tasks.o
    0x08005138   0x08005138   0x000001b4   Code   RO         4107    i.xTaskCreate       tasks.o
    0x080052ec   0x080052ec   0x0000001c   Code   RO         4114    i.xTaskGetSchedulerState  tasks.o
    0x08005308   0x08005308   0x0000000c   Code   RO         4115    i.xTaskGetTickCount  tasks.o
    0x08005314   0x08005314   0x00000188   Code   RO         4117    i.xTaskIncrementTick  tasks.o
    0x0800549c   0x0800549c   0x000000f0   Code   RO         4120    i.xTaskRemoveFromEventList  tasks.o
    0x0800558c   0x0800558c   0x00000150   Code   RO         4121    i.xTaskResumeAll    tasks.o
    0x080056dc   0x080056dc   0x00000094   Code   RO         4403    i.xTimerCreateTimerTask  timers.o
    0x08005770   0x08005770   0x0000000c   Data   RO         3211    .constdata          gyro_task.o
    0x0800577c   0x0800577c   0x00000012   Data   RO         3547    .constdata          bsp_gyro_accal.o
    0x0800578e   0x0800578e   0x00000002   PAD
    0x08005790   0x08005790   0x0000000c   Data   RO         4801    .constdata          AHRS.lib(ahrs.o)
    0x0800579c   0x0800579c   0x00000804   Data   RO         4934    .constdata          arm_cortexM4lf_math.lib(arm_common_tables.o)
    0x08005fa0   0x08005fa0   0x00000020   Data   RO         5133    Region$$Table       anon$$obj.o


    Execution Region RW_IRAM1 (Exec base: 0x20000000, Load base: 0x08005fc0, Size: 0x00013618, Max: 0x00020000, ABSOLUTE, COMPRESSED[0x0000005c])

    Exec Addr    Load Addr    Size         Type   Attr      Idx    E Section Name        Object

    0x20000000   COMPRESSED   0x00000014   Data   RW          236    .data               system_stm32f4xx.o
    0x20000014   COMPRESSED   0x00000010   Data   RW          644    .data               stm32f4xx_rcc.o
    0x20000024   COMPRESSED   0x00000007   Data   RW         2977    .data               led_blink_task.o
    0x2000002b   COMPRESSED   0x00000010   Data   RW         3117    .data               remote_task.o
    0x2000003b   COMPRESSED   0x00000001   PAD
    0x2000003c   COMPRESSED   0x0000006c   Data   RW         3219    .data               gyro_task.o
    0x200000a8   COMPRESSED   0x00000001   Data   RW         3343    .data               bsp_usart.o
    0x200000a9   COMPRESSED   0x00000003   PAD
    0x200000ac   COMPRESSED   0x00000008   Data   RW         3383    .data               bsp_tim.o
    0x200000b4   COMPRESSED   0x0000002c   Data   RW         3548    .data               bsp_gyro_accal.o
    0x200000e0   COMPRESSED   0x00000040   Data   RW         4124    .data               tasks.o
    0x20000120   COMPRESSED   0x00000014   Data   RW         4411    .data               timers.o
    0x20000134   COMPRESSED   0x0000001c   Data   RW         4532    .data               heap_4.o
    0x20000150   COMPRESSED   0x0000000c   Data   RW         4585    .data               port.o
    0x2000015c   COMPRESSED   0x00000010   Data   RW         4802    .data               AHRS.lib(ahrs.o)
    0x2000016c   COMPRESSED   0x00000004   Data   RW         5116    .data               mc_w.l(errno.o)
    0x20000170        -       0x00000014   Zero   RW         2976    .bss                led_blink_task.o
    0x20000184        -       0x00000228   Zero   RW         3065    .bss                chassis_task.o
    0x200003ac        -       0x00000118   Zero   RW         3209    .bss                gyro_task.o
    0x200004c4        -       0x00000022   Zero   RW         3341    .bss                bsp_usart.o
    0x200004e6   COMPRESSED   0x00000002   PAD
    0x200004e8        -       0x00000040   Zero   RW         3920    .bss                queue.o
    0x20000528        -       0x000000c8   Zero   RW         4123    .bss                tasks.o
    0x200005f0        -       0x00000028   Zero   RW         4410    .bss                timers.o
    0x20000618        -       0x00012c00   Zero   RW         4531    .bss                heap_4.o
    0x20013218        -       0x00000400   Zero   RW         2965    STACK               startup_stm32f40_41xxx.o


==============================================================================

Image component sizes


      Code (inc. data)   RO Data    RW Data    ZI Data      Debug   Object Name

        84          6          0          0          0       4968   ahrs_middleware.o
       444         16          0          0          0       1576   bsp_can.o
       116          0          0          0          0       1695   bsp_delay.o
      2564         76         18         44          0      12374   bsp_gyro_accal.o
       112          6          0          0          0        591   bsp_led.o
        84         12          0          0          0        618   bsp_motor.o
        48          0          0          0          0        944   bsp_spi.o
       168         14          0          8          0       1389   bsp_tim.o
       312         28          0          1         34       1595   bsp_usart.o
        76          8          0          0          0        654   buzzer_task.o
       386          6          0          0          0       2859   chassis_behave.o
       940         80          0          0        552       3267   chassis_task.o
         0          0          0          0          0      14616   event_groups.o
      1224         96         12        108        280       6149   gyro_task.o
       528         20          0         28      76800       4619   heap_4.o
       336         20          0          7         20      11032   led_blink_task.o
       124          0          0          0          0       2729   list.o
        34          0          0          0          0      15863   main.o
       156         70          0          0          0     240566   make_task.o
       132         12          0          0          0     307703   misc.o
       218          0          0          0          0       1850   pid.o
       726         80          0         12          0      10612   port.o
       790          8          0          0         64      11351   queue.o
       152         22          0         16          0       3370   remote_task.o
       178          6          0          0          0       2408   rm_motor.o
        36          8        392          0       1024        836   startup_stm32f40_41xxx.o
      1426         48          0          0          0       9103   stm32f4xx_can.o
       120          4          0          0          0       1839   stm32f4xx_dma.o
       196          0          0          0          0       2927   stm32f4xx_gpio.o
        12          0          0          0          0       2737   stm32f4xx_it.o
       244         40          0         16          0       4927   stm32f4xx_rcc.o
        22          0          0          0          0       2369   stm32f4xx_spi.o
        74          0          0          0          0       6322   stm32f4xx_tim.o
       266          4          0          0          0       3557   stm32f4xx_usart.o
       260         36          0         20          0       1425   system_stm32f4xx.o
      2292        174          0         64        200      25397   tasks.o
      1236         66          0         20         40      26030   timers.o
       186          4          0          0          0       2333   z_math.o

    ----------------------------------------------------------------------
     16338        974        456        348      79016     755200   Object Totals
         0          0         32          0          0          0   (incl. Generated)
        36          4          2          4          2          0   (incl. Padding)

    ----------------------------------------------------------------------

      Code (inc. data)   RO Data    RW Data    ZI Data      Debug   Library Member Name

      2718         84         12         16          0       9922   ahrs.o
         0          0       2052          0          0       4636   arm_common_tables.o
       120         12          0          0          0      16970   arm_cos_f32.o
       260         18          0          0          0        826   arm_sin_cos_f32.o
       116         12          0          0          0        658   arm_sin_f32.o
       300         42          0          0          0        176   asinf.o
       592         90          0          0          0        184   atan2f.o
        38          0          0          0          0        116   fpclassifyf.o
        44         12          0          0          0        464   funder.o
       120          0          0          0          0        272   sqrtf_full.o
        86          0          0          0          0          0   __dczerorl2.o
         0          0          0          0          0          0   entry.o
         0          0          0          0          0          0   entry10a.o
         0          0          0          0          0          0   entry11a.o
         8          4          0          0          0          0   entry2.o
         4          0          0          0          0          0   entry5.o
         0          0          0          0          0          0   entry7b.o
         0          0          0          0          0          0   entry8b.o
         8          4          0          0          0          0   entry9a.o
        12          6          0          4          0         68   errno.o
        30          0          0          0          0          0   handlers.o
        36          8          0          0          0         68   init.o
         0          0          0          0          0          0   iusefp.o
        30          0          0          0          0         68   llshl.o
        36          0          0          0          0         68   llsshr.o
        32          0          0          0          0         68   llushr.o
        36          0          0          0          0         68   memcpya.o
        36          0          0          0          0        108   memseta.o
        56          0          0          0          0         88   d2f.o
       334          0          0          0          0        148   dadd.o
       186          0          0          0          0        176   depilogue.o
        34          0          0          0          0         76   dflti.o
       228          0          0          0          0         96   dmul.o
        38          0          0          0          0         68   f2d.o
       110          0          0          0          0        168   fepilogue.o

    ----------------------------------------------------------------------
      5654        292       2064         20          0      35560   Library Totals
         6          0          0          0          0          0   (incl. Padding)

    ----------------------------------------------------------------------

      Code (inc. data)   RO Data    RW Data    ZI Data      Debug   Library Name

      2718         84         12         16          0       9922   AHRS.lib
       496         42       2052          0          0      23090   arm_cortexM4lf_math.lib
      1094        144          0          0          0       1212   m_wm.l
       354         22          0          4          0        516   mc_w.l
       986          0          0          0          0        820   mf_w.l

    ----------------------------------------------------------------------
      5654        292       2064         20          0      35560   Library Totals

    ----------------------------------------------------------------------

==============================================================================


      Code (inc. data)   RO Data    RW Data    ZI Data      Debug   

     21992       1266       2520        368      79016     777372   Grand Totals
     21992       1266       2520         92      79016     777372   ELF Image Totals (compressed)
     21992       1266       2520         92          0          0   ROM Totals

==============================================================================

    Total RO  Size (Code + RO Data)                24512 (  23.94kB)
    Total RW  Size (RW Data + ZI Data)             79384 (  77.52kB)
    Total ROM Size (Code + RO Data + RW Data)      24604 (  24.03kB)

==============================================================================

